--- !tapi-tbd
tbd-version:           4
targets:               [ arm64-tvos ]
uuids:
  - target: arm64-tvos
    value: '52E2F172-FC42-3905-912C-497004FD17EF'
flags:                 [ flat_namespace, not_app_extension_safe ]
install-name:          "@rpath/TVVLCKit.framework/TVVLCKit"
current-version:       1
compatibility-version: 1
exports:
  - targets:              [ arm64-tvos ]
    symbols:              [ _ABR_iteration_loop, _AES128_ECB_decrypt,
                            _AES128_ECB_encrypt, _ATHformula, _AddMember, _AddSender,
                            _AddVbrFrame, _AnalyzeSamples, _BitrateIndex,
                            _CBR_iteration_loop, _CRC_writeheader, _DELAY_DAY,
                            _DELAY_HOUR, _DELAY_MINUTE, _DELAY_SECOND, _DELAY_ZERO,
                            _FLAC_API_SUPPORTS_OGG_FLAC,
                            _FLAC__ChannelAssignmentString,
                            _FLAC__ENTROPY_CODING_METHOD_PARTITIONED_RICE2_ESCAPE_PARAMETER,
                            _FLAC__ENTROPY_CODING_METHOD_PARTITIONED_RICE2_PARAMETER_LEN,
                            _FLAC__ENTROPY_CODING_METHOD_PARTITIONED_RICE_ESCAPE_PARAMETER,
                            _FLAC__ENTROPY_CODING_METHOD_PARTITIONED_RICE_ORDER_LEN,
                            _FLAC__ENTROPY_CODING_METHOD_PARTITIONED_RICE_PARAMETER_LEN,
                            _FLAC__ENTROPY_CODING_METHOD_PARTITIONED_RICE_RAW_LEN,
                            _FLAC__ENTROPY_CODING_METHOD_TYPE_LEN,
                            _FLAC__EntropyCodingMethodTypeString,
                            _FLAC__FRAME_FOOTER_CRC_LEN,
                            _FLAC__FRAME_HEADER_BITS_PER_SAMPLE_LEN,
                            _FLAC__FRAME_HEADER_BLOCKING_STRATEGY_LEN,
                            _FLAC__FRAME_HEADER_BLOCK_SIZE_LEN,
                            _FLAC__FRAME_HEADER_CHANNEL_ASSIGNMENT_LEN,
                            _FLAC__FRAME_HEADER_CRC_LEN,
                            _FLAC__FRAME_HEADER_RESERVED_LEN,
                            _FLAC__FRAME_HEADER_SAMPLE_RATE_LEN,
                            _FLAC__FRAME_HEADER_SYNC,
                            _FLAC__FRAME_HEADER_SYNC_LEN,
                            _FLAC__FRAME_HEADER_ZERO_PAD_LEN,
                            _FLAC__FrameNumberTypeString, _FLAC__MD5Accumulate,
                            _FLAC__MD5Final, _FLAC__MD5Init,
                            _FLAC__MetadataTypeString,
                            _FLAC__OGG_MAPPING_FIRST_HEADER_PACKET_TYPE,
                            _FLAC__OGG_MAPPING_MAGIC,
                            _FLAC__OGG_MAPPING_NUM_HEADERS_LEN,
                            _FLAC__OGG_MAPPING_PACKET_TYPE_LEN,
                            _FLAC__OGG_MAPPING_VERSION_MAJOR_LEN,
                            _FLAC__OGG_MAPPING_VERSION_MINOR_LEN,
                            _FLAC__STREAM_METADATA_APPLICATION_ID_LEN,
                            _FLAC__STREAM_METADATA_CUESHEET_INDEX_NUMBER_LEN,
                            _FLAC__STREAM_METADATA_CUESHEET_INDEX_OFFSET_LEN,
                            _FLAC__STREAM_METADATA_CUESHEET_INDEX_RESERVED_LEN,
                            _FLAC__STREAM_METADATA_CUESHEET_IS_CD_LEN,
                            _FLAC__STREAM_METADATA_CUESHEET_LEAD_IN_LEN,
                            _FLAC__STREAM_METADATA_CUESHEET_MEDIA_CATALOG_NUMBER_LEN,
                            _FLAC__STREAM_METADATA_CUESHEET_NUM_TRACKS_LEN,
                            _FLAC__STREAM_METADATA_CUESHEET_RESERVED_LEN,
                            _FLAC__STREAM_METADATA_CUESHEET_TRACK_ISRC_LEN,
                            _FLAC__STREAM_METADATA_CUESHEET_TRACK_NUMBER_LEN,
                            _FLAC__STREAM_METADATA_CUESHEET_TRACK_NUM_INDICES_LEN,
                            _FLAC__STREAM_METADATA_CUESHEET_TRACK_OFFSET_LEN,
                            _FLAC__STREAM_METADATA_CUESHEET_TRACK_PRE_EMPHASIS_LEN,
                            _FLAC__STREAM_METADATA_CUESHEET_TRACK_RESERVED_LEN,
                            _FLAC__STREAM_METADATA_CUESHEET_TRACK_TYPE_LEN,
                            _FLAC__STREAM_METADATA_IS_LAST_LEN,
                            _FLAC__STREAM_METADATA_LENGTH_LEN,
                            _FLAC__STREAM_METADATA_PICTURE_COLORS_LEN,
                            _FLAC__STREAM_METADATA_PICTURE_DATA_LENGTH_LEN,
                            _FLAC__STREAM_METADATA_PICTURE_DEPTH_LEN,
                            _FLAC__STREAM_METADATA_PICTURE_DESCRIPTION_LENGTH_LEN,
                            _FLAC__STREAM_METADATA_PICTURE_HEIGHT_LEN,
                            _FLAC__STREAM_METADATA_PICTURE_MIME_TYPE_LENGTH_LEN,
                            _FLAC__STREAM_METADATA_PICTURE_TYPE_LEN,
                            _FLAC__STREAM_METADATA_PICTURE_WIDTH_LEN,
                            _FLAC__STREAM_METADATA_SEEKPOINT_FRAME_SAMPLES_LEN,
                            _FLAC__STREAM_METADATA_SEEKPOINT_PLACEHOLDER,
                            _FLAC__STREAM_METADATA_SEEKPOINT_SAMPLE_NUMBER_LEN,
                            _FLAC__STREAM_METADATA_SEEKPOINT_STREAM_OFFSET_LEN,
                            _FLAC__STREAM_METADATA_STREAMINFO_BITS_PER_SAMPLE_LEN,
                            _FLAC__STREAM_METADATA_STREAMINFO_CHANNELS_LEN,
                            _FLAC__STREAM_METADATA_STREAMINFO_MAX_BLOCK_SIZE_LEN,
                            _FLAC__STREAM_METADATA_STREAMINFO_MAX_FRAME_SIZE_LEN,
                            _FLAC__STREAM_METADATA_STREAMINFO_MD5SUM_LEN,
                            _FLAC__STREAM_METADATA_STREAMINFO_MIN_BLOCK_SIZE_LEN,
                            _FLAC__STREAM_METADATA_STREAMINFO_MIN_FRAME_SIZE_LEN,
                            _FLAC__STREAM_METADATA_STREAMINFO_SAMPLE_RATE_LEN,
                            _FLAC__STREAM_METADATA_STREAMINFO_TOTAL_SAMPLES_LEN,
                            _FLAC__STREAM_METADATA_TYPE_LEN,
                            _FLAC__STREAM_METADATA_VORBIS_COMMENT_ENTRY_LENGTH_LEN,
                            _FLAC__STREAM_METADATA_VORBIS_COMMENT_NUM_COMMENTS_LEN,
                            _FLAC__STREAM_SYNC, _FLAC__STREAM_SYNC_LEN,
                            _FLAC__STREAM_SYNC_STRING,
                            _FLAC__SUBFRAME_LPC_QLP_COEFF_PRECISION_LEN,
                            _FLAC__SUBFRAME_LPC_QLP_SHIFT_LEN,
                            _FLAC__SUBFRAME_TYPE_CONSTANT_BYTE_ALIGNED_MASK,
                            _FLAC__SUBFRAME_TYPE_FIXED_BYTE_ALIGNED_MASK,
                            _FLAC__SUBFRAME_TYPE_LEN,
                            _FLAC__SUBFRAME_TYPE_LPC_BYTE_ALIGNED_MASK,
                            _FLAC__SUBFRAME_TYPE_VERBATIM_BYTE_ALIGNED_MASK,
                            _FLAC__SUBFRAME_WASTED_BITS_FLAG_LEN,
                            _FLAC__SUBFRAME_ZERO_PAD_LEN,
                            _FLAC__StreamDecoderErrorStatusString,
                            _FLAC__StreamDecoderInitStatusString,
                            _FLAC__StreamDecoderLengthStatusString,
                            _FLAC__StreamDecoderReadStatusString,
                            _FLAC__StreamDecoderSeekStatusString,
                            _FLAC__StreamDecoderStateString,
                            _FLAC__StreamDecoderTellStatusString,
                            _FLAC__StreamDecoderWriteStatusString,
                            _FLAC__StreamEncoderInitStatusString,
                            _FLAC__StreamEncoderReadStatusString,
                            _FLAC__StreamEncoderSeekStatusString,
                            _FLAC__StreamEncoderStateString,
                            _FLAC__StreamEncoderTellStatusString,
                            _FLAC__StreamEncoderWriteStatusString,
                            _FLAC__StreamMetadata_Picture_TypeString,
                            _FLAC__SubframeTypeString, _FLAC__VENDOR_STRING,
                            _FLAC__VERSION_STRING, _FLAC__add_metadata_block,
                            _FLAC__bitreader_bits_left_for_byte_alignment,
                            _FLAC__bitreader_clear, _FLAC__bitreader_delete,
                            _FLAC__bitreader_dump, _FLAC__bitreader_free,
                            _FLAC__bitreader_get_input_bits_unconsumed,
                            _FLAC__bitreader_get_read_crc16,
                            _FLAC__bitreader_init,
                            _FLAC__bitreader_is_consumed_byte_aligned,
                            _FLAC__bitreader_new,
                            _FLAC__bitreader_read_byte_block_aligned_no_crc,
                            _FLAC__bitreader_read_raw_int32,
                            _FLAC__bitreader_read_raw_uint32,
                            _FLAC__bitreader_read_raw_uint64,
                            _FLAC__bitreader_read_rice_signed,
                            _FLAC__bitreader_read_rice_signed_block,
                            _FLAC__bitreader_read_uint32_little_endian,
                            _FLAC__bitreader_read_unary_unsigned,
                            _FLAC__bitreader_read_utf8_uint32,
                            _FLAC__bitreader_read_utf8_uint64,
                            _FLAC__bitreader_reset_read_crc16,
                            _FLAC__bitreader_skip_bits_no_crc,
                            _FLAC__bitreader_skip_byte_block_aligned_no_crc,
                            _FLAC__bitwriter_clear, _FLAC__bitwriter_delete,
                            _FLAC__bitwriter_dump, _FLAC__bitwriter_free,
                            _FLAC__bitwriter_get_buffer,
                            _FLAC__bitwriter_get_input_bits_unconsumed,
                            _FLAC__bitwriter_get_write_crc16,
                            _FLAC__bitwriter_get_write_crc8,
                            _FLAC__bitwriter_init,
                            _FLAC__bitwriter_is_byte_aligned,
                            _FLAC__bitwriter_new,
                            _FLAC__bitwriter_release_buffer,
                            _FLAC__bitwriter_rice_bits,
                            _FLAC__bitwriter_write_byte_block,
                            _FLAC__bitwriter_write_raw_int32,
                            _FLAC__bitwriter_write_raw_uint32,
                            _FLAC__bitwriter_write_raw_uint32_little_endian,
                            _FLAC__bitwriter_write_raw_uint64,
                            _FLAC__bitwriter_write_rice_signed,
                            _FLAC__bitwriter_write_rice_signed_block,
                            _FLAC__bitwriter_write_unary_unsigned,
                            _FLAC__bitwriter_write_utf8_uint32,
                            _FLAC__bitwriter_write_utf8_uint64,
                            _FLAC__bitwriter_write_zeroes,
                            _FLAC__bitwriter_zero_pad_to_byte_boundary,
                            _FLAC__cpu_info, _FLAC__crc16, _FLAC__crc16_table,
                            _FLAC__crc16_update_words32,
                            _FLAC__crc16_update_words64, _FLAC__crc8,
                            _FLAC__crc8_table,
                            _FLAC__fixed_compute_best_predictor,
                            _FLAC__fixed_compute_best_predictor_wide,
                            _FLAC__fixed_compute_residual,
                            _FLAC__fixed_restore_signal,
                            _FLAC__format_blocksize_is_subset,
                            _FLAC__format_cuesheet_is_legal,
                            _FLAC__format_entropy_coding_method_partitioned_rice_contents_clear,
                            _FLAC__format_entropy_coding_method_partitioned_rice_contents_ensure_size,
                            _FLAC__format_entropy_coding_method_partitioned_rice_contents_init,
                            _FLAC__format_get_max_rice_partition_order,
                            _FLAC__format_get_max_rice_partition_order_from_blocksize,
                            _FLAC__format_get_max_rice_partition_order_from_blocksize_limited_max_and_predictor_order,
                            _FLAC__format_picture_is_legal,
                            _FLAC__format_sample_rate_is_subset,
                            _FLAC__format_sample_rate_is_valid,
                            _FLAC__format_seektable_is_legal,
                            _FLAC__format_seektable_sort,
                            _FLAC__format_vorbiscomment_entry_is_legal,
                            _FLAC__format_vorbiscomment_entry_name_is_legal,
                            _FLAC__format_vorbiscomment_entry_value_is_legal,
                            _FLAC__frame_add_header,
                            _FLAC__lpc_compute_autocorrelation,
                            _FLAC__lpc_compute_best_order,
                            _FLAC__lpc_compute_expected_bits_per_residual_sample,
                            _FLAC__lpc_compute_expected_bits_per_residual_sample_with_error_scale,
                            _FLAC__lpc_compute_lp_coefficients,
                            _FLAC__lpc_compute_residual_from_qlp_coefficients,
                            _FLAC__lpc_compute_residual_from_qlp_coefficients_wide,
                            _FLAC__lpc_quantize_coefficients,
                            _FLAC__lpc_restore_signal,
                            _FLAC__lpc_restore_signal_wide,
                            _FLAC__lpc_window_data, _FLAC__memory_alloc_aligned,
                            _FLAC__memory_alloc_aligned_int32_array,
                            _FLAC__memory_alloc_aligned_real_array,
                            _FLAC__memory_alloc_aligned_uint32_array,
                            _FLAC__memory_alloc_aligned_uint64_array,
                            _FLAC__memory_alloc_aligned_unsigned_array,
                            _FLAC__ogg_decoder_aspect_finish,
                            _FLAC__ogg_decoder_aspect_flush,
                            _FLAC__ogg_decoder_aspect_init,
                            _FLAC__ogg_decoder_aspect_read_callback_wrapper,
                            _FLAC__ogg_decoder_aspect_reset,
                            _FLAC__ogg_decoder_aspect_set_defaults,
                            _FLAC__ogg_decoder_aspect_set_serial_number,
                            _FLAC__ogg_encoder_aspect_finish,
                            _FLAC__ogg_encoder_aspect_init,
                            _FLAC__ogg_encoder_aspect_set_defaults,
                            _FLAC__ogg_encoder_aspect_set_num_metadata,
                            _FLAC__ogg_encoder_aspect_set_serial_number,
                            _FLAC__ogg_encoder_aspect_write_callback_wrapper,
                            _FLAC__stream_decoder_delete,
                            _FLAC__stream_decoder_finish,
                            _FLAC__stream_decoder_flush,
                            _FLAC__stream_decoder_get_bits_per_sample,
                            _FLAC__stream_decoder_get_blocksize,
                            _FLAC__stream_decoder_get_channel_assignment,
                            _FLAC__stream_decoder_get_channels,
                            _FLAC__stream_decoder_get_decode_position,
                            _FLAC__stream_decoder_get_input_bytes_unconsumed,
                            _FLAC__stream_decoder_get_md5_checking,
                            _FLAC__stream_decoder_get_resolved_state_string,
                            _FLAC__stream_decoder_get_sample_rate,
                            _FLAC__stream_decoder_get_state,
                            _FLAC__stream_decoder_get_total_samples,
                            _FLAC__stream_decoder_init_FILE,
                            _FLAC__stream_decoder_init_file,
                            _FLAC__stream_decoder_init_ogg_FILE,
                            _FLAC__stream_decoder_init_ogg_file,
                            _FLAC__stream_decoder_init_ogg_stream,
                            _FLAC__stream_decoder_init_stream,
                            _FLAC__stream_decoder_new,
                            _FLAC__stream_decoder_process_single,
                            _FLAC__stream_decoder_process_until_end_of_metadata,
                            _FLAC__stream_decoder_process_until_end_of_stream,
                            _FLAC__stream_decoder_reset,
                            _FLAC__stream_decoder_seek_absolute,
                            _FLAC__stream_decoder_set_md5_checking,
                            _FLAC__stream_decoder_set_metadata_ignore,
                            _FLAC__stream_decoder_set_metadata_ignore_all,
                            _FLAC__stream_decoder_set_metadata_ignore_application,
                            _FLAC__stream_decoder_set_metadata_respond,
                            _FLAC__stream_decoder_set_metadata_respond_all,
                            _FLAC__stream_decoder_set_metadata_respond_application,
                            _FLAC__stream_decoder_set_ogg_serial_number,
                            _FLAC__stream_decoder_skip_single_frame,
                            _FLAC__stream_encoder_delete,
                            _FLAC__stream_encoder_disable_constant_subframes,
                            _FLAC__stream_encoder_disable_fixed_subframes,
                            _FLAC__stream_encoder_disable_verbatim_subframes,
                            _FLAC__stream_encoder_finish,
                            _FLAC__stream_encoder_get_bits_per_sample,
                            _FLAC__stream_encoder_get_blocksize,
                            _FLAC__stream_encoder_get_channels,
                            _FLAC__stream_encoder_get_do_escape_coding,
                            _FLAC__stream_encoder_get_do_exhaustive_model_search,
                            _FLAC__stream_encoder_get_do_md5,
                            _FLAC__stream_encoder_get_do_mid_side_stereo,
                            _FLAC__stream_encoder_get_do_qlp_coeff_prec_search,
                            _FLAC__stream_encoder_get_loose_mid_side_stereo,
                            _FLAC__stream_encoder_get_max_lpc_order,
                            _FLAC__stream_encoder_get_max_residual_partition_order,
                            _FLAC__stream_encoder_get_min_residual_partition_order,
                            _FLAC__stream_encoder_get_qlp_coeff_precision,
                            _FLAC__stream_encoder_get_resolved_state_string,
                            _FLAC__stream_encoder_get_rice_parameter_search_dist,
                            _FLAC__stream_encoder_get_sample_rate,
                            _FLAC__stream_encoder_get_state,
                            _FLAC__stream_encoder_get_streamable_subset,
                            _FLAC__stream_encoder_get_total_samples_estimate,
                            _FLAC__stream_encoder_get_verify,
                            _FLAC__stream_encoder_get_verify_decoder_error_stats,
                            _FLAC__stream_encoder_get_verify_decoder_state,
                            _FLAC__stream_encoder_init_FILE,
                            _FLAC__stream_encoder_init_file,
                            _FLAC__stream_encoder_init_ogg_FILE,
                            _FLAC__stream_encoder_init_ogg_file,
                            _FLAC__stream_encoder_init_ogg_stream,
                            _FLAC__stream_encoder_init_stream,
                            _FLAC__stream_encoder_new,
                            _FLAC__stream_encoder_process,
                            _FLAC__stream_encoder_process_interleaved,
                            _FLAC__stream_encoder_set_apodization,
                            _FLAC__stream_encoder_set_bits_per_sample,
                            _FLAC__stream_encoder_set_blocksize,
                            _FLAC__stream_encoder_set_channels,
                            _FLAC__stream_encoder_set_compression_level,
                            _FLAC__stream_encoder_set_do_escape_coding,
                            _FLAC__stream_encoder_set_do_exhaustive_model_search,
                            _FLAC__stream_encoder_set_do_md5,
                            _FLAC__stream_encoder_set_do_mid_side_stereo,
                            _FLAC__stream_encoder_set_do_qlp_coeff_prec_search,
                            _FLAC__stream_encoder_set_loose_mid_side_stereo,
                            _FLAC__stream_encoder_set_max_lpc_order,
                            _FLAC__stream_encoder_set_max_residual_partition_order,
                            _FLAC__stream_encoder_set_metadata,
                            _FLAC__stream_encoder_set_min_residual_partition_order,
                            _FLAC__stream_encoder_set_ogg_serial_number,
                            _FLAC__stream_encoder_set_qlp_coeff_precision,
                            _FLAC__stream_encoder_set_rice_parameter_search_dist,
                            _FLAC__stream_encoder_set_sample_rate,
                            _FLAC__stream_encoder_set_streamable_subset,
                            _FLAC__stream_encoder_set_total_samples_estimate,
                            _FLAC__stream_encoder_set_verify,
                            _FLAC__subframe_add_constant,
                            _FLAC__subframe_add_fixed, _FLAC__subframe_add_lpc,
                            _FLAC__subframe_add_verbatim, _FLAC__window_bartlett,
                            _FLAC__window_bartlett_hann, _FLAC__window_blackman,
                            _FLAC__window_blackman_harris_4term_92db_sidelobe,
                            _FLAC__window_connes, _FLAC__window_flattop,
                            _FLAC__window_gauss, _FLAC__window_hamming,
                            _FLAC__window_hann, _FLAC__window_kaiser_bessel,
                            _FLAC__window_nuttall, _FLAC__window_partial_tukey,
                            _FLAC__window_punchout_tukey,
                            _FLAC__window_rectangle, _FLAC__window_triangle,
                            _FLAC__window_tukey, _FLAC__window_welch,
                            _FTC_CMapCache_Lookup, _FTC_CMapCache_New,
                            _FTC_ImageCache_Lookup, _FTC_ImageCache_LookupScaler,
                            _FTC_ImageCache_New, _FTC_Manager_Done,
                            _FTC_Manager_LookupFace, _FTC_Manager_LookupSize,
                            _FTC_Manager_New, _FTC_Manager_RemoveFaceID,
                            _FTC_Manager_Reset, _FTC_Node_Unref,
                            _FTC_SBitCache_Lookup, _FTC_SBitCache_LookupScaler,
                            _FTC_SBitCache_New, _FT_Activate_Size,
                            _FT_Add_Default_Modules, _FT_Add_Module,
                            _FT_Angle_Diff, _FT_Atan2, _FT_Attach_File,
                            _FT_Attach_Stream, _FT_Bitmap_Blend,
                            _FT_Bitmap_Convert, _FT_Bitmap_Copy, _FT_Bitmap_Done,
                            _FT_Bitmap_Embolden, _FT_Bitmap_Init, _FT_Bitmap_New,
                            _FT_CeilFix, _FT_Cos, _FT_DivFix, _FT_Done_Face,
                            _FT_Done_FreeType, _FT_Done_Glyph, _FT_Done_Library,
                            _FT_Done_MM_Var, _FT_Done_Size, _FT_Error_String,
                            _FT_Face_GetCharVariantIndex,
                            _FT_Face_GetCharVariantIsDefault,
                            _FT_Face_GetCharsOfVariant,
                            _FT_Face_GetVariantSelectors,
                            _FT_Face_GetVariantsOfChar, _FT_Face_Properties,
                            _FT_FloorFix, _FT_Get_Advance, _FT_Get_Advances,
                            _FT_Get_CMap_Format, _FT_Get_CMap_Language_ID,
                            _FT_Get_Char_Index, _FT_Get_Charmap_Index,
                            _FT_Get_Color_Glyph_Layer, _FT_Get_First_Char,
                            _FT_Get_Font_Format, _FT_Get_Glyph, _FT_Get_Glyph_Name,
                            _FT_Get_Kerning, _FT_Get_MM_Blend_Coordinates,
                            _FT_Get_MM_Var, _FT_Get_MM_WeightVector,
                            _FT_Get_Module, _FT_Get_Multi_Master,
                            _FT_Get_Name_Index, _FT_Get_Next_Char,
                            _FT_Get_PS_Font_Info, _FT_Get_PS_Font_Private,
                            _FT_Get_PS_Font_Value, _FT_Get_Postscript_Name,
                            _FT_Get_Renderer, _FT_Get_Sfnt_LangTag,
                            _FT_Get_Sfnt_Name, _FT_Get_Sfnt_Name_Count,
                            _FT_Get_Sfnt_Table, _FT_Get_SubGlyph_Info,
                            _FT_Get_Track_Kerning, _FT_Get_TrueType_Engine_Type,
                            _FT_Get_Var_Axis_Flags,
                            _FT_Get_Var_Blend_Coordinates,
                            _FT_Get_Var_Design_Coordinates,
                            _FT_Get_X11_Font_Format, _FT_GlyphSlot_Embolden,
                            _FT_GlyphSlot_Oblique, _FT_GlyphSlot_Own_Bitmap,
                            _FT_Glyph_Copy, _FT_Glyph_Get_CBox, _FT_Glyph_Stroke,
                            _FT_Glyph_StrokeBorder, _FT_Glyph_To_Bitmap,
                            _FT_Glyph_Transform, _FT_Gzip_Uncompress,
                            _FT_Has_PS_Glyph_Names, _FT_Init_FreeType,
                            _FT_Library_SetLcdFilter,
                            _FT_Library_SetLcdFilterWeights,
                            _FT_Library_SetLcdGeometry, _FT_Library_Version,
                            _FT_List_Add, _FT_List_Finalize, _FT_List_Find,
                            _FT_List_Insert, _FT_List_Iterate, _FT_List_Remove,
                            _FT_List_Up, _FT_Load_Char, _FT_Load_Glyph,
                            _FT_Load_Sfnt_Table, _FT_Matrix_Invert,
                            _FT_Matrix_Multiply, _FT_MulDiv, _FT_MulFix,
                            _FT_New_Face, _FT_New_Glyph, _FT_New_Library,
                            _FT_New_Memory_Face, _FT_New_Size, _FT_Open_Face,
                            _FT_Outline_Check, _FT_Outline_Copy,
                            _FT_Outline_Decompose, _FT_Outline_Done,
                            _FT_Outline_Embolden, _FT_Outline_EmboldenXY,
                            _FT_Outline_GetInsideBorder,
                            _FT_Outline_GetOutsideBorder, _FT_Outline_Get_Bitmap,
                            _FT_Outline_Get_CBox, _FT_Outline_Get_Orientation,
                            _FT_Outline_New, _FT_Outline_Render,
                            _FT_Outline_Reverse, _FT_Outline_Transform,
                            _FT_Outline_Translate, _FT_Palette_Data_Get,
                            _FT_Palette_Select, _FT_Palette_Set_Foreground_Color,
                            _FT_Property_Get, _FT_Property_Set, _FT_Reference_Face,
                            _FT_Reference_Library, _FT_Remove_Module,
                            _FT_Render_Glyph, _FT_Request_Size, _FT_RoundFix,
                            _FT_Select_Charmap, _FT_Select_Size, _FT_Set_Char_Size,
                            _FT_Set_Charmap, _FT_Set_Debug_Hook,
                            _FT_Set_Default_Properties,
                            _FT_Set_MM_Blend_Coordinates,
                            _FT_Set_MM_Design_Coordinates,
                            _FT_Set_MM_WeightVector, _FT_Set_Named_Instance,
                            _FT_Set_Pixel_Sizes, _FT_Set_Renderer,
                            _FT_Set_Transform, _FT_Set_Var_Blend_Coordinates,
                            _FT_Set_Var_Design_Coordinates, _FT_Sfnt_Table_Info,
                            _FT_Sin, _FT_Stream_OpenGzip, _FT_Stream_OpenLZW,
                            _FT_Stroker_BeginSubPath, _FT_Stroker_ConicTo,
                            _FT_Stroker_CubicTo, _FT_Stroker_Done,
                            _FT_Stroker_EndSubPath, _FT_Stroker_Export,
                            _FT_Stroker_ExportBorder,
                            _FT_Stroker_GetBorderCounts, _FT_Stroker_GetCounts,
                            _FT_Stroker_LineTo, _FT_Stroker_New,
                            _FT_Stroker_ParseOutline, _FT_Stroker_Rewind,
                            _FT_Stroker_Set, _FT_Tan, _FT_Vector_From_Polar,
                            _FT_Vector_Length, _FT_Vector_Polarize,
                            _FT_Vector_Rotate, _FT_Vector_Transform,
                            _FT_Vector_Unit, _FindNearestBitrate, _FromCharset,
                            _GetTitleGain, _GetVbrTag, _Gsm_Coder, _Gsm_Decoder,
                            _Gsm_LPC_Analysis, _Gsm_Long_Term_Predictor,
                            _Gsm_Long_Term_Synthesis_Filtering, _Gsm_Preprocess,
                            _Gsm_RPE_Decoding, _Gsm_RPE_Encoding,
                            _Gsm_Short_Term_Analysis_Filter,
                            _Gsm_Short_Term_Synthesis_Filter, _HMAC_MD5,
                            _INT123_COS9, _INT123_bc_cleanup, _INT123_bc_fill,
                            _INT123_bc_poolsize, _INT123_bc_prepare,
                            _INT123_bytes_to_samples, _INT123_catchsignal,
                            _INT123_check_neon, _INT123_clear_icy,
                            _INT123_compat_catpath, _INT123_compat_close,
                            _INT123_compat_dirclose, _INT123_compat_diropen,
                            _INT123_compat_fclose, _INT123_compat_fdopen,
                            _INT123_compat_fopen, _INT123_compat_getenv,
                            _INT123_compat_isdir, _INT123_compat_nextdir,
                            _INT123_compat_nextfile, _INT123_compat_open,
                            _INT123_compat_strdup, _INT123_compute_bpf,
                            _INT123_dct36, _INT123_dct36_neon64, _INT123_dct64,
                            _INT123_dct64_real_neon64, _INT123_decclass,
                            _INT123_decode_update, _INT123_decoder_synth_bytes,
                            _INT123_dectype, _INT123_defdec,
                            _INT123_dither_table_init, _INT123_do_equalizer,
                            _INT123_do_layer1, _INT123_do_layer2,
                            _INT123_do_layer3, _INT123_do_rva, _INT123_exit_id3,
                            _INT123_feed_more, _INT123_feed_set_pos,
                            _INT123_fi_add, _INT123_fi_exit, _INT123_fi_init,
                            _INT123_fi_reset, _INT123_fi_resize, _INT123_fi_set,
                            _INT123_frame_bitrate, _INT123_frame_buffers,
                            _INT123_frame_buffers_reset, _INT123_frame_cpu_opt,
                            _INT123_frame_dither_init, _INT123_frame_exit,
                            _INT123_frame_expect_outsamples,
                            _INT123_frame_fill_toc, _INT123_frame_freq,
                            _INT123_frame_gapless_init,
                            _INT123_frame_gapless_realinit,
                            _INT123_frame_gapless_update,
                            _INT123_frame_index_find, _INT123_frame_index_setup,
                            _INT123_frame_init, _INT123_frame_init_par,
                            _INT123_frame_ins2outs, _INT123_frame_offset,
                            _INT123_frame_outbuffer, _INT123_frame_output_format,
                            _INT123_frame_outs, _INT123_frame_reset,
                            _INT123_frame_set_frameseek, _INT123_frame_set_seek,
                            _INT123_frame_skip, _INT123_get_songlen,
                            _INT123_getcpuflags, _INT123_icy2utf8,
                            _INT123_id3_link, _INT123_id3_to_utf8,
                            _INT123_init_icy, _INT123_init_id3,
                            _INT123_init_layer12_stuff,
                            _INT123_init_layer12_table,
                            _INT123_init_layer12_table_mmx,
                            _INT123_init_layer3_gainpow2,
                            _INT123_init_layer3_gainpow2_mmx,
                            _INT123_init_layer3_stuff, _INT123_invalidate_format,
                            _INT123_make_conv16to8_table,
                            _INT123_make_decode_tables,
                            _INT123_make_decode_tables_mmx,
                            _INT123_ntom_frame_outsamples, _INT123_ntom_frameoff,
                            _INT123_ntom_frmouts, _INT123_ntom_ins2outs,
                            _INT123_ntom_set_ntom, _INT123_ntom_val,
                            _INT123_open_bad, _INT123_open_feed,
                            _INT123_open_fixed_post, _INT123_open_fixed_pre,
                            _INT123_open_stream, _INT123_open_stream_handle,
                            _INT123_outblock_bytes, _INT123_parse_new_id3,
                            _INT123_pnts, _INT123_postprocess_buffer,
                            _INT123_read_frame, _INT123_reset_icy,
                            _INT123_reset_id3, _INT123_safe_realloc,
                            _INT123_safer_realloc, _INT123_samples_to_bytes,
                            _INT123_set_pointer, _INT123_set_synth_functions,
                            _INT123_synth_1to1, _INT123_synth_1to1_8bit,
                            _INT123_synth_1to1_8bit_m2s,
                            _INT123_synth_1to1_8bit_mono,
                            _INT123_synth_1to1_8bit_wrap,
                            _INT123_synth_1to1_8bit_wrap_m2s,
                            _INT123_synth_1to1_8bit_wrap_mono,
                            _INT123_synth_1to1_dither,
                            _INT123_synth_1to1_fltst_neon64,
                            _INT123_synth_1to1_m2s, _INT123_synth_1to1_mono,
                            _INT123_synth_1to1_neon64,
                            _INT123_synth_1to1_neon64_accurate_asm,
                            _INT123_synth_1to1_real, _INT123_synth_1to1_real_m2s,
                            _INT123_synth_1to1_real_mono,
                            _INT123_synth_1to1_real_neon64,
                            _INT123_synth_1to1_real_neon64_asm,
                            _INT123_synth_1to1_real_s_neon64_asm,
                            _INT123_synth_1to1_s32, _INT123_synth_1to1_s32_m2s,
                            _INT123_synth_1to1_s32_mono,
                            _INT123_synth_1to1_s32_neon64,
                            _INT123_synth_1to1_s32_neon64_asm,
                            _INT123_synth_1to1_s32_s_neon64_asm,
                            _INT123_synth_1to1_s32st_neon64,
                            _INT123_synth_1to1_s_neon64_accurate_asm,
                            _INT123_synth_1to1_stereo_neon64, _INT123_synth_2to1,
                            _INT123_synth_2to1_8bit, _INT123_synth_2to1_8bit_m2s,
                            _INT123_synth_2to1_8bit_mono,
                            _INT123_synth_2to1_dither, _INT123_synth_2to1_m2s,
                            _INT123_synth_2to1_mono, _INT123_synth_2to1_real,
                            _INT123_synth_2to1_real_m2s,
                            _INT123_synth_2to1_real_mono, _INT123_synth_2to1_s32,
                            _INT123_synth_2to1_s32_m2s,
                            _INT123_synth_2to1_s32_mono, _INT123_synth_4to1,
                            _INT123_synth_4to1_8bit, _INT123_synth_4to1_8bit_m2s,
                            _INT123_synth_4to1_8bit_mono,
                            _INT123_synth_4to1_dither, _INT123_synth_4to1_m2s,
                            _INT123_synth_4to1_mono, _INT123_synth_4to1_real,
                            _INT123_synth_4to1_real_m2s,
                            _INT123_synth_4to1_real_mono, _INT123_synth_4to1_s32,
                            _INT123_synth_4to1_s32_m2s,
                            _INT123_synth_4to1_s32_mono, _INT123_synth_ntom,
                            _INT123_synth_ntom_8bit, _INT123_synth_ntom_8bit_m2s,
                            _INT123_synth_ntom_8bit_mono, _INT123_synth_ntom_m2s,
                            _INT123_synth_ntom_mono, _INT123_synth_ntom_real,
                            _INT123_synth_ntom_real_m2s,
                            _INT123_synth_ntom_real_mono, _INT123_synth_ntom_s32,
                            _INT123_synth_ntom_s32_m2s,
                            _INT123_synth_ntom_s32_mono,
                            _INT123_synth_ntom_set_step, _INT123_tfcos36,
                            _INT123_unintr_fwrite, _INT123_unintr_read,
                            _INT123_unintr_write, _InitGainAnalysis, _InitVbrTag,
                            _L3psycho_anal_vbr, _MD4Final, _MD4Init, _MD4Update,
                            _MD4_Final, _MD4_Init, _MD4_Update, _MD5Final, _MD5Init,
                            _MD5Transform, _MD5Update, _MD5_Final, _MD5_Init,
                            _MD5_Update, _ModPlug_GetCurrentOrder,
                            _ModPlug_GetCurrentPattern, _ModPlug_GetCurrentRow,
                            _ModPlug_GetCurrentSpeed, _ModPlug_GetCurrentTempo,
                            _ModPlug_GetLength, _ModPlug_GetMasterVolume,
                            _ModPlug_GetMessage, _ModPlug_GetModuleType,
                            _ModPlug_GetName, _ModPlug_GetPattern,
                            _ModPlug_GetPlayingChannels, _ModPlug_GetSettings,
                            _ModPlug_InitMixerCallback, _ModPlug_InstrumentName,
                            _ModPlug_Load, _ModPlug_NumChannels,
                            _ModPlug_NumInstruments, _ModPlug_NumPatterns,
                            _ModPlug_NumSamples, _ModPlug_Read,
                            _ModPlug_SampleName, _ModPlug_Seek, _ModPlug_SeekOrder,
                            _ModPlug_SetMasterVolume, _ModPlug_SetSettings,
                            _ModPlug_Unload, _ModPlug_UnloadMixerCallback,
                            _NTPtime64, _NewMember, _NewSender,
                            _OC_BLOCK_RUN_CODE_NBITS, _OC_DCT_TOKEN_EXTRA_BITS,
                            _OC_FZIG_ZAG, _OC_IZIG_ZAG, _OC_MB_MAP, _OC_MB_MAP_IDXS,
                            _OC_MB_MAP_NIDXS, _OC_MODE_BITS, _OC_MV_BITS,
                            _OC_SB_RUN_CODE_NBITS, _OC_SB_RUN_VAL_MIN,
                            _OC_SET_CHROMA_MVS_TABLE, _OnExpire, _OnReceive,
                            _PacketType, _PutVbrTag, _ReceivedPacketSize,
                            _ReceivingInterfaceAddr, _RemoveMember, _RemoveSender,
                            _Reschedule, _ResvAdjust, _ResvFrameBegin, _ResvFrameEnd,
                            _ResvMaxBits, _SHA256FinalBits, _SHA256Input,
                            _SHA256Reset, _SHA256Result, _SHA384FinalBits,
                            _SHA384Input, _SHA384Reset, _SHA384Result,
                            _SHA512FinalBits, _SHA512Input, _SHA512Reset,
                            _SHA512Result, _Schedule, _SendBYEPacket,
                            _SendRTCPReport, _SendingInterfaceAddr,
                            _SentPacketSize, _SmpFrqIndex, _THE_END_OF_TIME,
                            _TH_DEF_QUANT_INFO, _TH_VP31_HUFF_CODES,
                            _TH_VP31_QUANT_INFO, _TT_New_Context, _TT_RunIns,
                            _TVVLCKitVersionNumber, _TVVLCKitVersionString,
                            _ToCharset, _TypeOfEvent, _USHABlockSize, _USHAFinalBits,
                            _USHAHashSize, _USHAHashSizeBits, _USHAInput, _USHAReset,
                            _USHAResult, _UTF8ToHtml, _UTF8Toisolat1,
                            _UpdateMusicCRC, _VBR_encode_frame,
                            _VBR_new_iteration_loop, _VBR_old_iteration_loop,
                            _VLCChapterDescriptionDuration,
                            _VLCChapterDescriptionName,
                            _VLCChapterDescriptionTimeOffset,
                            _VLCMediaDiscovererCategory,
                            _VLCMediaDiscovererLongName, _VLCMediaDiscovererName,
                            _VLCMediaListItemAdded, _VLCMediaListItemDeleted,
                            _VLCMediaMetaChanged, _VLCMediaPlayerChapterChanged,
                            _VLCMediaPlayerSnapshotTaken,
                            _VLCMediaPlayerStateChanged,
                            _VLCMediaPlayerStateToString,
                            _VLCMediaPlayerTimeChanged,
                            _VLCMediaPlayerTitleListChanged,
                            _VLCMediaPlayerTitleSelectionChanged,
                            _VLCMediaPlayerVolumeChanged,
                            _VLCMediaTracksInformationAudioChannelsNumber,
                            _VLCMediaTracksInformationAudioRate,
                            _VLCMediaTracksInformationBitrate,
                            _VLCMediaTracksInformationCodec,
                            _VLCMediaTracksInformationCodecLevel,
                            _VLCMediaTracksInformationCodecProfile,
                            _VLCMediaTracksInformationDescription,
                            _VLCMediaTracksInformationFrameRate,
                            _VLCMediaTracksInformationFrameRateDenominator,
                            _VLCMediaTracksInformationId,
                            _VLCMediaTracksInformationLanguage,
                            _VLCMediaTracksInformationSourceAspectRatio,
                            _VLCMediaTracksInformationSourceAspectRatioDenominator,
                            _VLCMediaTracksInformationTextEncoding,
                            _VLCMediaTracksInformationType,
                            _VLCMediaTracksInformationTypeAudio,
                            _VLCMediaTracksInformationTypeText,
                            _VLCMediaTracksInformationTypeUnknown,
                            _VLCMediaTracksInformationTypeVideo,
                            _VLCMediaTracksInformationVideoHeight,
                            _VLCMediaTracksInformationVideoOrientation,
                            _VLCMediaTracksInformationVideoProjection,
                            _VLCMediaTracksInformationVideoWidth,
                            _VLCMetaInformationActors, _VLCMetaInformationAlbum,
                            _VLCMetaInformationAlbumArtist,
                            _VLCMetaInformationArtist,
                            _VLCMetaInformationArtwork,
                            _VLCMetaInformationArtworkURL,
                            _VLCMetaInformationCopyright,
                            _VLCMetaInformationDate,
                            _VLCMetaInformationDescription,
                            _VLCMetaInformationDirector,
                            _VLCMetaInformationDiscNumber,
                            _VLCMetaInformationEncodedBy,
                            _VLCMetaInformationEpisode, _VLCMetaInformationGenre,
                            _VLCMetaInformationLanguage,
                            _VLCMetaInformationNowPlaying,
                            _VLCMetaInformationPublisher,
                            _VLCMetaInformationRating, _VLCMetaInformationSeason,
                            _VLCMetaInformationSetting,
                            _VLCMetaInformationShowName,
                            _VLCMetaInformationTitle, _VLCMetaInformationTrackID,
                            _VLCMetaInformationTrackNumber,
                            _VLCMetaInformationTrackTotal,
                            _VLCMetaInformationURL, _VLCTitleDescriptionDuration,
                            _VLCTitleDescriptionIsMenu, _VLCTitleDescriptionName,
                            _VLC_CompileBy, _VLC_CompileHost, _VLC_Compiler,
                            _VP8_UVSSE, __Z10dateHeaderv,
                            __Z10readSocketR16UsageEnvironmentiPhjR11sockaddr_in,
                            __Z10strDupSizePKc, __Z10strDupSizePKcRm,
                            __Z11our_MD5DataPKhjPc,
                            __Z11writeSocketR16UsageEnvironmenti7in_addrtPhj,
                            __Z11writeSocketR16UsageEnvironmenti7in_addrthPhj,
                            __Z12base64DecodePKcRjh, __Z12base64DecodePKcjRjh,
                            __Z12base64EncodePKcj,
                            __Z12ourIPAddressR16UsageEnvironment,
                            __Z13getSourcePortR16UsageEnvironmentiR4Port,
                            __Z13groupsockPrivR16UsageEnvironment,
                            __Z14our_MD5DataRawPKhjPh, __Z15OrderToSpeakersjb,
                            __Z15TranscodeMP3ADUPKhjjPhjRj,
                            __Z15parseRangeParamPKcRdS1_RPcS3_Rh,
                            __Z15setSendBufferToR16UsageEnvironmentij,
                            __Z15socketJoinGroupR16UsageEnvironmentij,
                            __Z15timestampStringv, __Z16ComputeFrameSizejjhhh,
                            __Z16DegreesToRadiansf,
                            __Z16MP3HuffmanDecodePN11MP3SideInfo9gr_info_sEhPKhjjRjR22MP3HuffmanEncodingInfo,
                            __Z16RadiansToDegreesf,
                            __Z16parseRangeHeaderPKcRdS1_RPcS3_Rh,
                            __Z16parseScaleHeaderPKcRf,
                            __Z16socketLeaveGroupR16UsageEnvironmentij,
                            __Z17OrderToComponentsjb,
                            __Z17getSendBufferSizeR16UsageEnvironmenti,
                            __Z17setupStreamSocketR16UsageEnvironment4Porth,
                            __Z18IsMulticastAddressj,
                            __Z18ZeroOutMP3SideInfoPhjj,
                            __Z18makeSocketBlockingij,
                            __Z18setReceiveBufferToR16UsageEnvironmentij,
                            __Z18socketJoinGroupSSMR16UsageEnvironmentijj,
                            __Z19setupDatagramSocketR16UsageEnvironment4Port,
                            __Z19socketLeaveGroupSSMR16UsageEnvironmentijj,
                            __Z20getReceiveBufferSizeR16UsageEnvironmenti,
                            __Z20increaseSendBufferToR16UsageEnvironmentij,
                            __Z20reclaimGroupsockPrivR16UsageEnvironment,
                            __Z21RTSPOptionIsSupportedPKcS0_,
                            __Z21ignoreSigPipeOnSocketi,
                            __Z21makeSocketNonBlockingi,
                            __Z21parseGeneralConfigStrPKcRj,
                            __Z22GetADUInfoFromMP3FramePKhjRjS1_R11MP3SideInfoS1_S1_S1_,
                            __Z22parseRTSPRequestStringPKcjPcjS1_jS1_jS1_jS1_jRj,
                            __Z23ComponentToChannelLabeljb,
                            __Z23increaseReceiveBufferToR16UsageEnvironmentij,
                            __Z23parseSPropParameterSetsPKcRj,
                            __Z23parseStreamMuxConfigStrPKcRhS1_S1_S1_S1_RPhRj,
                            __Z23parseStreamMuxConfigStrPKcRj,
                            __Z24OrderToComponentPositionjb,
                            __Z24updateSideInfoForHuffmanR11MP3SideInfohPKhjjRjS3_S3_S3_S3_S3_S3_S3_,
                            __Z26chooseRandomIPv4SSMAddressR16UsageEnvironment,
                            __Z27removeH264or5EmulationBytesPhjPKhj,
                            __Z28parseVorbisOrTheoraConfigStrPKcRPhRjS2_S3_S2_S3_S3_,
                            __Z31generateVorbisOrTheoraConfigStrPhjS_jS_jj,
                            __Z31parseTransportHeaderForREGISTERPKcRhS1_RPc,
                            __Z35defaultCreateNewProxyRTSPClientFuncR23ProxyServerMediaSessionPKcS2_S2_tii,
                            __Z40samplingFrequencyFromAudioSpecificConfigPKc,
                            __Z6strDupPKc, __Z7TimeNowv, __Z8seqNumLTtt,
                            __Z9shiftBitsPhjPKhjj,
                            __ZN10CSoundFile10FreeSampleEPv,
                            __ZN10CSoundFile10InitPlayerEb,
                            __ZN10CSoundFile10NoteChangeEjibb,
                            __ZN10CSoundFile10PackSampleERii,
                            __ZN10CSoundFile10ProcessRowEv,
                            __ZN10CSoundFile10ReadSampleEP14_MODINSTRUMENTjPKcj,
                            __ZN10CSoundFile10RetrigNoteEjj,
                            __ZN10CSoundFile10gdwSysInfoE,
                            __ZN10CSoundFile10gnCPUUsageE,
                            __ZN10CSoundFile10gnChannelsE,
                            __ZN10CSoundFile11DoFreqSlideEP11_MODCHANNELi,
                            __ZN10CSoundFile11FineVibratoEP11_MODCHANNELj,
                            __ZN10CSoundFile11FreePatternEPv,
                            __ZN10CSoundFile11LoopPatternEii,
                            __ZN10CSoundFile11PatternLoopEP11_MODCHANNELj,
                            __ZN10CSoundFile11VolumeSlideEP11_MODCHANNELj,
                            __ZN10CSoundFile12FineVolumeUpEP11_MODCHANNELj,
                            __ZN10CSoundFile12ITInstrToMPTEPKvP17_INSTRUMENTHEADERj,
                            __ZN10CSoundFile12PanningSlideEP11_MODCHANNELj,
                            __ZN10CSoundFile12PortamentoUpEP11_MODCHANNELj,
                            __ZN10CSoundFile12ResetMidiCfgEv,
                            __ZN10CSoundFile12SetMixConfigEjj,
                            __ZN10CSoundFile12gpSndMixHookE,
                            __ZN10CSoundFile13CanPackSampleEPcjjPh,
                            __ZN10CSoundFile13CheckCPUUsageEj,
                            __ZN10CSoundFile13DestroySampleEj,
                            __ZN10CSoundFile13InitializeDSPEb,
                            __ZN10CSoundFile13ResetChannelsEv,
                            __ZN10CSoundFile13SetCurrentPosEj,
                            __ZN10CSoundFile13SetWaveConfigEjjjb,
                            __ZN10CSoundFile13gdwMixingFreqE,
                            __ZN10CSoundFile13gdwSoundSetupE,
                            __ZN10CSoundFile13m_nXBassDepthE,
                            __ZN10CSoundFile13m_nXBassRangeE,
                            __ZN10CSoundFile14AllocateSampleEj,
                            __ZN10CSoundFile14FineVolumeDownEP11_MODCHANNELj,
                            __ZN10CSoundFile14GlobalFadeSongEj,
                            __ZN10CSoundFile14GlobalVolSlideEj,
                            __ZN10CSoundFile14LoadMixPluginsEPKvj,
                            __ZN10CSoundFile14PortamentoDownEP11_MODCHANNELj,
                            __ZN10CSoundFile14ProcessEffectsEv,
                            __ZN10CSoundFile14ProcessMonoDSPEi,
                            __ZN10CSoundFile14SaveMixPluginsEP7__sFILEb,
                            __ZN10CSoundFile14SetPatternNameEjPKc,
                            __ZN10CSoundFile14TonePortamentoEP11_MODCHANNELj,
                            __ZN10CSoundFile14m_nReverbDelayE,
                            __ZN10CSoundFile14m_nReverbDepthE,
                            __ZN10CSoundFile15AllocatePatternEjj,
                            __ZN10CSoundFile15ChannelVolSlideEP11_MODCHANNELj,
                            __ZN10CSoundFile15CreateStereoMixEi,
                            __ZN10CSoundFile15GetSongCommentsEPcjj,
                            __ZN10CSoundFile15SetCurrentOrderEj,
                            __ZN10CSoundFile15SetMasterVolumeEjb,
                            __ZN10CSoundFile15SetWaveConfigExEbbbbbbb,
                            __ZN10CSoundFile15gnBitsPerSampleE,
                            __ZN10CSoundFile15m_nStreamVolumeE,
                            __ZN10CSoundFile16AdjustSampleLoopEP14_MODINSTRUMENT,
                            __ZN10CSoundFile16FinePortamentoUpEP11_MODCHANNELj,
                            __ZN10CSoundFile16InstrumentChangeEP11_MODCHANNELjbbb,
                            __ZN10CSoundFile16ProcessMidiMacroEjPKcj,
                            __ZN10CSoundFile16ProcessStereoDSPEi,
                            __ZN10CSoundFile16m_nProLogicDelayE,
                            __ZN10CSoundFile16m_nProLogicDepthE,
                            __ZN10CSoundFile17SetResamplingModeEj,
                            __ZN10CSoundFile17m_nMaxMixChannelsE,
                            __ZN10CSoundFile18FinePortamentoDownEP11_MODCHANNELj,
                            __ZN10CSoundFile18GetRawSongCommentsEPcjj,
                            __ZN10CSoundFile18SetXBassParametersEjj,
                            __ZN10CSoundFile19DetectUnusedSamplesEPb,
                            __ZN10CSoundFile19ExtendedMODCommandsEjj,
                            __ZN10CSoundFile19ExtendedS3MCommandsEjj,
                            __ZN10CSoundFile19SetReverbParametersEjj,
                            __ZN10CSoundFile19gnVolumeRampSamplesE,
                            __ZN10CSoundFile19m_nStereoSeparationE,
                            __ZN10CSoundFile20FrequencyToTransposeEP14_MODINSTRUMENT,
                            __ZN10CSoundFile20FrequencyToTransposeEj,
                            __ZN10CSoundFile20TransposeToFrequencyEii,
                            __ZN10CSoundFile21ExtendedChannelEffectEP11_MODCHANNELj,
                            __ZN10CSoundFile21ExtraFinePortamentoUpEP11_MODCHANNELj,
                            __ZN10CSoundFile21RemoveSelectedSamplesEPb,
                            __ZN10CSoundFile21SetSurroundParametersEjj,
                            __ZN10CSoundFile21gpMixPluginCreateProcE,
                            __ZN10CSoundFile23ExtraFinePortamentoDownEP11_MODCHANNELj,
                            __ZN10CSoundFile4ReadEPvj, __ZN10CSoundFile5gnAGCE,
                            __ZN10CSoundFile6CreateEPKhj,
                            __ZN10CSoundFile6KeyOffEj,
                            __ZN10CSoundFile6ReadITEPKhj,
                            __ZN10CSoundFile6ReadXMEPKhj,
                            __ZN10CSoundFile6SetAGCEb,
                            __ZN10CSoundFile7DestroyEv,
                            __ZN10CSoundFile7NoteCutEjj,
                            __ZN10CSoundFile7Read669EPKhj,
                            __ZN10CSoundFile7ReadABCEPKhj,
                            __ZN10CSoundFile7ReadAMFEPKhj,
                            __ZN10CSoundFile7ReadAMSEPKhj,
                            __ZN10CSoundFile7ReadDBMEPKhj,
                            __ZN10CSoundFile7ReadDMFEPKhj,
                            __ZN10CSoundFile7ReadDSMEPKhj,
                            __ZN10CSoundFile7ReadFAREPKhj,
                            __ZN10CSoundFile7ReadMDLEPKhj,
                            __ZN10CSoundFile7ReadMIDEPKhj,
                            __ZN10CSoundFile7ReadMT2EPKhj,
                            __ZN10CSoundFile7ReadMTMEPKhj,
                            __ZN10CSoundFile7ReadMedEPKhj,
                            __ZN10CSoundFile7ReadModEPKhj,
                            __ZN10CSoundFile7ReadOKTEPKhj,
                            __ZN10CSoundFile7ReadPATEPKhj,
                            __ZN10CSoundFile7ReadPSMEPKhj,
                            __ZN10CSoundFile7ReadPTMEPKhj,
                            __ZN10CSoundFile7ReadS3MEPKhj,
                            __ZN10CSoundFile7ReadSTMEPKhj,
                            __ZN10CSoundFile7ReadUMXEPKhj,
                            __ZN10CSoundFile7ReadUltEPKhj,
                            __ZN10CSoundFile7ReadWavEPKhj,
                            __ZN10CSoundFile7TestABCEPKhj,
                            __ZN10CSoundFile7TestMIDEPKhj,
                            __ZN10CSoundFile7TestPATEPKhj,
                            __ZN10CSoundFile7TremoloEP11_MODCHANNELj,
                            __ZN10CSoundFile7VibratoEP11_MODCHANNELj,
                            __ZN10CSoundFile8CheckNNAEjjib,
                            __ZN10CSoundFile8FadeSongEj,
                            __ZN10CSoundFile8ReadAMS2EPKhj,
                            __ZN10CSoundFile8ReadNoteEv,
                            __ZN10CSoundFile8SetSpeedEj,
                            __ZN10CSoundFile8SetTempoEj,
                            __ZN10CSoundFile9GetLengthEbb,
                            __ZN10CSoundFile9PanbrelloEP11_MODCHANNELj,
                            __ZN10CSoundFile9gnVUMeterE, __ZN10CSoundFileC1Ev,
                            __ZN10CSoundFileC2Ev, __ZN10CSoundFileD1Ev,
                            __ZN10CSoundFileD2Ev,
                            __ZN10DelayQueue11handleAlarmEv,
                            __ZN10DelayQueue11removeEntryEP15DelayQueueEntry,
                            __ZN10DelayQueue11removeEntryEl,
                            __ZN10DelayQueue11synchronizeEv,
                            __ZN10DelayQueue11updateEntryEP15DelayQueueEntry13DelayInterval,
                            __ZN10DelayQueue11updateEntryEl13DelayInterval,
                            __ZN10DelayQueue15timeToNextAlarmEv,
                            __ZN10DelayQueue16findEntryByTokenEl,
                            __ZN10DelayQueue8addEntryEP15DelayQueueEntry,
                            __ZN10DelayQueueC1Ev, __ZN10DelayQueueC2Ev,
                            __ZN10DelayQueueD0Ev, __ZN10DelayQueueD1Ev,
                            __ZN10DelayQueueD2Ev,
                            __ZN10HandlerSet11moveHandlerEii,
                            __ZN10HandlerSet12clearHandlerEi,
                            __ZN10HandlerSet13assignHandlerEiiPFvPviES0_,
                            __ZN10HandlerSet13lookupHandlerEi,
                            __ZN10HandlerSetC1Ev, __ZN10HandlerSetC2Ev,
                            __ZN10HandlerSetD0Ev, __ZN10HandlerSetD1Ev,
                            __ZN10HandlerSetD2Ev,
                            __ZN10MD5Context16transform64BytesEPKh,
                            __ZN10MD5Context3endEPc,
                            __ZN10MD5Context7addDataEPKhj,
                            __ZN10MD5Context7zeroizeEv,
                            __ZN10MD5Context8finalizeEPh, __ZN10MD5ContextC1Ev,
                            __ZN10MD5ContextC2Ev, __ZN10MD5ContextD1Ev,
                            __ZN10MD5ContextD2Ev, __ZN10NetAddress5cleanEv,
                            __ZN10NetAddress6assignEPKhj,
                            __ZN10NetAddressC1EPKhj, __ZN10NetAddressC1ERKS_,
                            __ZN10NetAddressC1Ej, __ZN10NetAddressC2EPKhj,
                            __ZN10NetAddressC2ERKS_, __ZN10NetAddressC2Ej,
                            __ZN10NetAddressD0Ev, __ZN10NetAddressD1Ev,
                            __ZN10NetAddressD2Ev, __ZN10NetAddressaSERKS_,
                            __ZN10RTSPClient10grabSocketEv,
                            __ZN10RTSPClient10setBaseURLEPKc,
                            __ZN10RTSPClient11sendRequestEPNS_13RequestRecordE,
                            __ZN10RTSPClient12RequestQueue10findByCSeqEj,
                            __ZN10RTSPClient12RequestQueue5resetEv,
                            __ZN10RTSPClient12RequestQueue7dequeueEv,
                            __ZN10RTSPClient12RequestQueue7enqueueEPNS_13RequestRecordE,
                            __ZN10RTSPClient12RequestQueue9putAtHeadEPNS_13RequestRecordE,
                            __ZN10RTSPClient12RequestQueueC1ERS0_,
                            __ZN10RTSPClient12RequestQueueC1Ev,
                            __ZN10RTSPClient12RequestQueueC2ERS0_,
                            __ZN10RTSPClient12RequestQueueC2Ev,
                            __ZN10RTSPClient12RequestQueueD0Ev,
                            __ZN10RTSPClient12RequestQueueD1Ev,
                            __ZN10RTSPClient12RequestQueueD2Ev,
                            __ZN10RTSPClient12lookupByNameER16UsageEnvironmentPKcRPS_,
                            __ZN10RTSPClient12parseRTSPURLER16UsageEnvironmentPKcRPcS5_R10NetAddressRtPS3_,
                            __ZN10RTSPClient13RequestRecordC1EjPFvPS_iPcEPKcS6_fP12MediaSessionP15MediaSubsession,
                            __ZN10RTSPClient13RequestRecordC1EjPKcPFvPS_iPcEP12MediaSessionP15MediaSubsessionjddfS2_,
                            __ZN10RTSPClient13RequestRecordC2EjPFvPS_iPcEPKcS6_fP12MediaSessionP15MediaSubsession,
                            __ZN10RTSPClient13RequestRecordC2EjPKcPFvPS_iPcEP12MediaSessionP15MediaSubsessionjddfS2_,
                            __ZN10RTSPClient13RequestRecordD0Ev,
                            __ZN10RTSPClient13RequestRecordD1Ev,
                            __ZN10RTSPClient13RequestRecordD2Ev,
                            __ZN10RTSPClient13resendCommandEPNS_13RequestRecordE,
                            __ZN10RTSPClient14checkForHeaderEPKcS1_jRS1_,
                            __ZN10RTSPClient14openConnectionEv,
                            __ZN10RTSPClient15connectToServerEit,
                            __ZN10RTSPClient15parseScaleParamEPKcRf,
                            __ZN10RTSPClient15parseSpeedParamEPKcRf,
                            __ZN10RTSPClient15resetTCPSocketsEv,
                            __ZN10RTSPClient15sendPlayCommandER12MediaSessionPFvPS_iPcEPKcS7_fP13Authenticator,
                            __ZN10RTSPClient15sendPlayCommandER12MediaSessionPFvPS_iPcEddfP13Authenticator,
                            __ZN10RTSPClient15sendPlayCommandER15MediaSubsessionPFvPS_iPcEPKcS7_fP13Authenticator,
                            __ZN10RTSPClient15sendPlayCommandER15MediaSubsessionPFvPS_iPcEddfP13Authenticator,
                            __ZN10RTSPClient15setServerStringEPKc,
                            __ZN10RTSPClient16sendPauseCommandER12MediaSessionPFvPS_iPcEP13Authenticator,
                            __ZN10RTSPClient16sendPauseCommandER15MediaSubsessionPFvPS_iPcEP13Authenticator,
                            __ZN10RTSPClient16sendSetupCommandER15MediaSubsessionPFvPS_iPcEhhhP13Authenticator,
                            __ZN10RTSPClient16setRequestFieldsEPNS_13RequestRecordERPcRhRPKcS3_S4_,
                            __ZN10RTSPClient17connectionHandlerEPvi,
                            __ZN10RTSPClient17parseResponseCodeEPKcRjRS1_,
                            __ZN10RTSPClient17sendRecordCommandER12MediaSessionPFvPS_iPcEP13Authenticator,
                            __ZN10RTSPClient17sendRecordCommandER15MediaSubsessionPFvPS_iPcEP13Authenticator,
                            __ZN10RTSPClient18connectionHandler1Ev,
                            __ZN10RTSPClient18handlePLAYResponseEP12MediaSessionP15MediaSubsessionPKcS5_S5_S5_,
                            __ZN10RTSPClient18handleRequestErrorEPNS_13RequestRecordE,
                            __ZN10RTSPClient18parseRTPInfoParamsERPKcRtRj,
                            __ZN10RTSPClient18responseBufferSizeE,
                            __ZN10RTSPClient18sendOptionsCommandEPFvPS_iPcEP13Authenticator,
                            __ZN10RTSPClient18setUserAgentStringEPKc,
                            __ZN10RTSPClient19handleResponseBytesEi,
                            __ZN10RTSPClient19handleSETUPResponseER15MediaSubsessionPKcS3_h,
                            __ZN10RTSPClient19incomingDataHandlerEPvi,
                            __ZN10RTSPClient19resetResponseBufferEv,
                            __ZN10RTSPClient19sendAnnounceCommandEPKcPFvPS_iPcEP13Authenticator,
                            __ZN10RTSPClient19sendDescribeCommandEPFvPS_iPcEP13Authenticator,
                            __ZN10RTSPClient19sendDummyUDPPacketsER12MediaSessionj,
                            __ZN10RTSPClient19sendDummyUDPPacketsER15MediaSubsessionj,
                            __ZN10RTSPClient19sendTeardownCommandER12MediaSessionPFvPS_iPcEP13Authenticator,
                            __ZN10RTSPClient19sendTeardownCommandER15MediaSubsessionPFvPS_iPcEP13Authenticator,
                            __ZN10RTSPClient19setupHTTPTunneling1Ev,
                            __ZN10RTSPClient19setupHTTPTunneling2Ev,
                            __ZN10RTSPClient20incomingDataHandler1Ev,
                            __ZN10RTSPClient20parseTransportParamsEPKcRPcRtRhS5_,
                            __ZN10RTSPClient21changeResponseHandlerEjPFvPS_iPcE,
                            __ZN10RTSPClient21createBlocksizeStringEh,
                            __ZN10RTSPClient21handleIncomingRequestEv,
                            __ZN10RTSPClient22constructSubsessionURLERK15MediaSubsessionRPKcS5_S5_,
                            __ZN10RTSPClient22handleTEARDOWNResponseER12MediaSessionR15MediaSubsession,
                            __ZN10RTSPClient23sendGetParameterCommandER12MediaSessionPFvPS_iPcEPKcP13Authenticator,
                            __ZN10RTSPClient23sendSetParameterCommandER12MediaSessionPFvPS_iPcEPKcS7_P13Authenticator,
                            __ZN10RTSPClient25createAuthenticatorStringEPKcS1_,
                            __ZN10RTSPClient26responseHandlerForHTTP_GETEPS_iPc,
                            __ZN10RTSPClient27handleAuthenticationFailureEPKc,
                            __ZN10RTSPClient27handleGET_PARAMETERResponseEPKcRPcS2_,
                            __ZN10RTSPClient27responseHandlerForHTTP_GET1EiPc,
                            __ZN10RTSPClient28handleAlternativeRequestByteEPvh,
                            __ZN10RTSPClient29handleAlternativeRequestByte1Eh,
                            __ZN10RTSPClient5resetEv,
                            __ZN10RTSPClient8setSpeedEP12MediaSessionf,
                            __ZN10RTSPClient9createNewER16UsageEnvironmentPKciS3_ti,
                            __ZN10RTSPClientC1ER16UsageEnvironmentPKciS3_ti,
                            __ZN10RTSPClientC2ER16UsageEnvironmentPKciS3_ti,
                            __ZN10RTSPClientD0Ev, __ZN10RTSPClientD1Ev,
                            __ZN10RTSPClientD2Ev,
                            __ZN10RTSPServer12lookupByNameER16UsageEnvironmentPKcRPS_,
                            __ZN10RTSPServer14registerStreamEP18ServerMediaSessionPKctPFvPS_jiPcES3_S3_hS3_,
                            __ZN10RTSPServer16deregisterStreamEP18ServerMediaSessionPKctPFvPS_jiPcES3_S3_S3_,
                            __ZN10RTSPServer17RTSPClientSession14handleCmd_PLAYEPNS_20RTSPClientConnectionEP21ServerMediaSubsessionPKc,
                            __ZN10RTSPServer17RTSPClientSession15handleCmd_PAUSEEPNS_20RTSPClientConnectionEP21ServerMediaSubsession,
                            __ZN10RTSPServer17RTSPClientSession15handleCmd_SETUPEPNS_20RTSPClientConnectionEPKcS4_S4_,
                            __ZN10RTSPServer17RTSPClientSession18handleCmd_TEARDOWNEPNS_20RTSPClientConnectionEP21ServerMediaSubsession,
                            __ZN10RTSPServer17RTSPClientSession19deleteStreamByTrackEj,
                            __ZN10RTSPServer17RTSPClientSession19reclaimStreamStatesEv,
                            __ZN10RTSPServer17RTSPClientSession23handleCmd_GET_PARAMETEREPNS_20RTSPClientConnectionEP21ServerMediaSubsessionPKc,
                            __ZN10RTSPServer17RTSPClientSession23handleCmd_SET_PARAMETEREPNS_20RTSPClientConnectionEP21ServerMediaSubsessionPKc,
                            __ZN10RTSPServer17RTSPClientSession23handleCmd_withinSessionEPNS_20RTSPClientConnectionEPKcS4_S4_S4_,
                            __ZN10RTSPServer17RTSPClientSessionC1ERS_j,
                            __ZN10RTSPServer17RTSPClientSessionC2ERS_j,
                            __ZN10RTSPServer17RTSPClientSessionD0Ev,
                            __ZN10RTSPServer17RTSPClientSessionD1Ev,
                            __ZN10RTSPServer17RTSPClientSessionD2Ev,
                            __ZN10RTSPServer19allowedCommandNamesEv,
                            __ZN10RTSPServer19weImplementREGISTEREPKcS1_RPc,
                            __ZN10RTSPServer20RTSPClientConnection13handleCmd_badEv,
                            __ZN10RTSPServer20RTSPClientConnection15setRTSPResponseEPKc,
                            __ZN10RTSPServer20RTSPClientConnection15setRTSPResponseEPKcS2_,
                            __ZN10RTSPServer20RTSPClientConnection15setRTSPResponseEPKcj,
                            __ZN10RTSPServer20RTSPClientConnection15setRTSPResponseEPKcjS2_,
                            __ZN10RTSPServer20RTSPClientConnection16authenticationOKEPKcS2_S2_,
                            __ZN10RTSPServer20RTSPClientConnection16closeSocketsRTSPEv,
                            __ZN10RTSPServer20RTSPClientConnection17ParamsForREGISTERC1EPKcPS0_S3_S3_hhS3_,
                            __ZN10RTSPServer20RTSPClientConnection17ParamsForREGISTERC2EPKcPS0_S3_S3_hhS3_,
                            __ZN10RTSPServer20RTSPClientConnection17ParamsForREGISTERD0Ev,
                            __ZN10RTSPServer20RTSPClientConnection17ParamsForREGISTERD1Ev,
                            __ZN10RTSPServer20RTSPClientConnection17ParamsForREGISTERD2Ev,
                            __ZN10RTSPServer20RTSPClientConnection17handleCmd_OPTIONSEv,
                            __ZN10RTSPServer20RTSPClientConnection18handleCmd_DESCRIBEEPKcS2_S2_,
                            __ZN10RTSPServer20RTSPClientConnection18handleCmd_REGISTEREPKcS2_S2_S2_hhS2_,
                            __ZN10RTSPServer20RTSPClientConnection18handleCmd_notFoundEv,
                            __ZN10RTSPServer20RTSPClientConnection18handleRequestBytesEi,
                            __ZN10RTSPServer20RTSPClientConnection18resetRequestBufferEv,
                            __ZN10RTSPServer20RTSPClientConnection21handleHTTPCmd_OPTIONSEv,
                            __ZN10RTSPServer20RTSPClientConnection22handleCmd_notSupportedEv,
                            __ZN10RTSPServer20RTSPClientConnection22handleHTTPCmd_notFoundEv,
                            __ZN10RTSPServer20RTSPClientConnection22parseHTTPRequestStringEPcjS1_jS1_jS1_j,
                            __ZN10RTSPServer20RTSPClientConnection23changeClientInputSocketEiPKhj,
                            __ZN10RTSPServer20RTSPClientConnection23handleCmd_GET_PARAMETEREPKc,
                            __ZN10RTSPServer20RTSPClientConnection23handleCmd_SET_PARAMETEREPKc,
                            __ZN10RTSPServer20RTSPClientConnection24continueHandlingREGISTEREPNS0_17ParamsForREGISTERE,
                            __ZN10RTSPServer20RTSPClientConnection25continueHandlingREGISTER1EPNS0_17ParamsForREGISTERE,
                            __ZN10RTSPServer20RTSPClientConnection25handleCmd_sessionNotFoundEv,
                            __ZN10RTSPServer20RTSPClientConnection26handleHTTPCmd_StreamingGETEPKcS2_,
                            __ZN10RTSPServer20RTSPClientConnection26handleHTTPCmd_TunnelingGETEPKc,
                            __ZN10RTSPServer20RTSPClientConnection26handleHTTPCmd_notSupportedEv,
                            __ZN10RTSPServer20RTSPClientConnection27handleHTTPCmd_TunnelingPOSTEPKcPKhj,
                            __ZN10RTSPServer20RTSPClientConnection28handleAlternativeRequestByteEPvh,
                            __ZN10RTSPServer20RTSPClientConnection29handleAlternativeRequestByte1Eh,
                            __ZN10RTSPServer20RTSPClientConnection30handleCmd_unsupportedTransportEv,
                            __ZN10RTSPServer20RTSPClientConnectionC1ERS_i11sockaddr_in,
                            __ZN10RTSPServer20RTSPClientConnectionC2ERS_i11sockaddr_in,
                            __ZN10RTSPServer20RTSPClientConnectionD0Ev,
                            __ZN10RTSPServer20RTSPClientConnectionD1Ev,
                            __ZN10RTSPServer20RTSPClientConnectionD2Ev,
                            __ZN10RTSPServer21implementCmd_REGISTEREPKcS1_S1_ihS1_,
                            __ZN10RTSPServer22createNewClientSessionEj,
                            __ZN10RTSPServer22setUpTunnelingOverHTTPE4Port,
                            __ZN10RTSPServer24noteTCPStreamingOnSocketEiPNS_17RTSPClientSessionEj,
                            __ZN10RTSPServer24specialClientAccessCheckEiR11sockaddr_inPKc,
                            __ZN10RTSPServer24stopTCPStreamingOnSocketEi,
                            __ZN10RTSPServer25createNewClientConnectionEi11sockaddr_in,
                            __ZN10RTSPServer25setAuthenticationDatabaseEP26UserAuthenticationDatabase,
                            __ZN10RTSPServer26unnoteTCPStreamingOnSocketEiPNS_17RTSPClientSessionEj,
                            __ZN10RTSPServer28specialClientUserAccessCheckEiR11sockaddr_inPKcS3_,
                            __ZN10RTSPServer29incomingConnectionHandlerHTTPEPvi,
                            __ZN10RTSPServer29incomingConnectionHandlerHTTPEv,
                            __ZN10RTSPServer35getAuthenticationDatabaseForCommandEPKc,
                            __ZN10RTSPServer9createNewER16UsageEnvironment4PortP26UserAuthenticationDatabasej,
                            __ZN10RTSPServerC1ER16UsageEnvironmenti4PortP26UserAuthenticationDatabasej,
                            __ZN10RTSPServerC2ER16UsageEnvironmenti4PortP26UserAuthenticationDatabasej,
                            __ZN10RTSPServerD0Ev, __ZN10RTSPServerD1Ev,
                            __ZN10RTSPServerD2Ev,
                            __ZN10destRecordC1ERK7in_addrRK4PorthjPS_,
                            __ZN10destRecordC2ERK7in_addrRK4PorthjPS_,
                            __ZN10destRecordD0Ev, __ZN10destRecordD1Ev,
                            __ZN10destRecordD2Ev,
                            __ZN11MediaSource12lookupByNameER16UsageEnvironmentPKcRPS_,
                            __ZN11MediaSourceC1ER16UsageEnvironment,
                            __ZN11MediaSourceC2ER16UsageEnvironment,
                            __ZN11MediaSourceD0Ev, __ZN11MediaSourceD1Ev,
                            __ZN11MediaSourceD2Ev,
                            __ZN11StreamState10endPlayingEP12Destinationsj,
                            __ZN11StreamState12startPlayingEP12DestinationsjPFvPvES2_PFvS2_hES2_,
                            __ZN11StreamState17sendRTCPAppPacketEhPKcPhj,
                            __ZN11StreamState5pauseEv,
                            __ZN11StreamState7reclaimEv,
                            __ZN11StreamStateC1ER29OnDemandServerMediaSubsessionRK4PortS4_P7RTPSinkP12BasicUDPSinkjP12FramedSourceP9GroupsockSC_,
                            __ZN11StreamStateC2ER29OnDemandServerMediaSubsessionRK4PortS4_P7RTPSinkP12BasicUDPSinkjP12FramedSourceP9GroupsockSC_,
                            __ZN11StreamStateD0Ev, __ZN11StreamStateD1Ev,
                            __ZN11StreamStateD2Ev,
                            __ZN11TextRTPSinkC1ER16UsageEnvironmentP9GroupsockhjPKc,
                            __ZN11TextRTPSinkC2ER16UsageEnvironmentP9GroupsockhjPKc,
                            __ZN11TextRTPSinkD0Ev, __ZN11TextRTPSinkD1Ev,
                            __ZN11TextRTPSinkD2Ev,
                            __ZN11libmatroska10DataBuffer5CloneEv,
                            __ZN11libmatroska10KaxCluster10ClassInfosE,
                            __ZN11libmatroska10KaxCluster11GetNewBlockEv,
                            __ZN11libmatroska10KaxCluster12AddBlockBlobEPNS_12KaxBlockBlobE,
                            __ZN11libmatroska10KaxCluster13ReleaseFramesEv,
                            __ZN11libmatroska10KaxCluster16AddFrameInternalERKNS_13KaxTrackEntryEyRNS_10DataBufferERPNS_13KaxBlockGroupEPKS6_SA_NS_10LacingTypeE,
                            __ZN11libmatroska10KaxCluster22GetBlockGlobalTimecodeEs,
                            __ZN11libmatroska10KaxCluster6RenderERN7libebml10IOCallbackERNS_7KaxCuesEb,
                            __ZN11libmatroska10KaxCluster8AddFrameERKNS_13KaxTrackEntryEyRNS_10DataBufferERPNS_13KaxBlockGroupENS_10LacingTypeE,
                            __ZN11libmatroska10KaxCluster8AddFrameERKNS_13KaxTrackEntryEyRNS_10DataBufferERPNS_13KaxBlockGroupERKS6_NS_10LacingTypeE,
                            __ZN11libmatroska10KaxCluster8AddFrameERKNS_13KaxTrackEntryEyRNS_10DataBufferERPNS_13KaxBlockGroupERKS6_SA_NS_10LacingTypeE,
                            __ZN11libmatroska10KaxClusterC1ERKS0_,
                            __ZN11libmatroska10KaxClusterC1Ev,
                            __ZN11libmatroska10KaxClusterC2ERKS0_,
                            __ZN11libmatroska10KaxClusterC2Ev,
                            __ZN11libmatroska10KaxCodecID10ClassInfosE,
                            __ZN11libmatroska10KaxCodecIDC1Ev,
                            __ZN11libmatroska10KaxCodecIDC2Ev,
                            __ZN11libmatroska10KaxCueTime10ClassInfosE,
                            __ZN11libmatroska10KaxCueTimeC1Ev,
                            __ZN11libmatroska10KaxCueTimeC2Ev,
                            __ZN11libmatroska10KaxDateUTC10ClassInfosE,
                            __ZN11libmatroska10KaxDateUTCC1Ev,
                            __ZN11libmatroska10KaxDateUTCC2Ev,
                            __ZN11libmatroska10KaxFileUID10ClassInfosE,
                            __ZN11libmatroska10KaxFileUIDC1Ev,
                            __ZN11libmatroska10KaxFileUIDC2Ev,
                            __ZN11libmatroska10KaxNextUID10ClassInfosE,
                            __ZN11libmatroska10KaxPrevUID10ClassInfosE,
                            __ZN11libmatroska10KaxSegment10ClassInfosE,
                            __ZN11libmatroska10KaxSegmentC1ERKS0_,
                            __ZN11libmatroska10KaxSegmentC1Ev,
                            __ZN11libmatroska10KaxSegmentC2ERKS0_,
                            __ZN11libmatroska10KaxSegmentC2Ev,
                            __ZN11libmatroska10KaxTagName10ClassInfosE,
                            __ZN11libmatroska10KaxTagNameC1Ev,
                            __ZN11libmatroska10KaxTagNameC2Ev,
                            __ZN11libmatroska11KaxAttached10ClassInfosE,
                            __ZN11libmatroska11KaxAttachedC1Ev,
                            __ZN11libmatroska11KaxAttachedC2Ev,
                            __ZN11libmatroska11KaxChapters10ClassInfosE,
                            __ZN11libmatroska11KaxChaptersC1Ev,
                            __ZN11libmatroska11KaxChaptersC2Ev,
                            __ZN11libmatroska11KaxCuePoint10ClassInfosE,
                            __ZN11libmatroska11KaxCuePoint11PositionSetERKNS_12KaxBlockBlobEy,
                            __ZN11libmatroska11KaxCuePoint11PositionSetERKNS_13KaxBlockGroupEy,
                            __ZN11libmatroska11KaxCuePoint11PositionSetERKNS_14KaxSimpleBlockEy,
                            __ZN11libmatroska11KaxCuePoint11PositionSetERKNS_16KaxInternalBlockEPKNS_13KaxBlockGroupEy,
                            __ZN11libmatroska11KaxCuePointC1Ev,
                            __ZN11libmatroska11KaxCuePointC2Ev,
                            __ZN11libmatroska11KaxCueTrack10ClassInfosE,
                            __ZN11libmatroska11KaxCueTrackC1Ev,
                            __ZN11libmatroska11KaxCueTrackC2Ev,
                            __ZN11libmatroska11KaxDuration10ClassInfosE,
                            __ZN11libmatroska11KaxDurationC1Ev,
                            __ZN11libmatroska11KaxDurationC2Ev,
                            __ZN11libmatroska11KaxFileData10ClassInfosE,
                            __ZN11libmatroska11KaxFileDataC1Ev,
                            __ZN11libmatroska11KaxFileDataC2Ev,
                            __ZN11libmatroska11KaxFileName10ClassInfosE,
                            __ZN11libmatroska11KaxFileNameC1Ev,
                            __ZN11libmatroska11KaxFileNameC2Ev,
                            __ZN11libmatroska11KaxMimeType10ClassInfosE,
                            __ZN11libmatroska11KaxMimeTypeC1Ev,
                            __ZN11libmatroska11KaxMimeTypeC2Ev,
                            __ZN11libmatroska11KaxSeekHead10ClassInfosE,
                            __ZN11libmatroska11KaxSeekHeadC1Ev,
                            __ZN11libmatroska11KaxSeekHeadC2Ev,
                            __ZN11libmatroska11KaxTrackUID10ClassInfosE,
                            __ZN11libmatroska11KaxTrackUIDC1Ev,
                            __ZN11libmatroska11KaxTrackUIDC2Ev,
                            __ZN11libmatroska12KaxBlockBlob12AddFrameAutoERKNS_13KaxTrackEntryEyRNS_10DataBufferENS_10LacingTypeEPKS0_S8_,
                            __ZN11libmatroska12KaxBlockBlob13SetBlockGroupERNS_13KaxBlockGroupE,
                            __ZN11libmatroska12KaxBlockBlob16SetBlockDurationEy,
                            __ZN11libmatroska12KaxBlockBlob20ReplaceSimpleByGroupEv,
                            __ZN11libmatroska12KaxBlockBlob9SetParentERNS_10KaxClusterE,
                            __ZN11libmatroska12KaxBlockBlobcvRNS_13KaxBlockGroupEEv,
                            __ZN11libmatroska12KaxBlockBlobcvRNS_14KaxSimpleBlockEEv,
                            __ZN11libmatroska12KaxBlockBlobcvRNS_16KaxInternalBlockEEv,
                            __ZN11libmatroska12KaxBlockMore10ClassInfosE,
                            __ZN11libmatroska12KaxBlockMoreC1Ev,
                            __ZN11libmatroska12KaxBlockMoreC2Ev,
                            __ZN11libmatroska12KaxCodecName10ClassInfosE,
                            __ZN11libmatroska12KaxCodecNameC1Ev,
                            __ZN11libmatroska12KaxCodecNameC2Ev,
                            __ZN11libmatroska12KaxMuxingApp10ClassInfosE,
                            __ZN11libmatroska12KaxMuxingAppC1Ev,
                            __ZN11libmatroska12KaxMuxingAppC2Ev,
                            __ZN11libmatroska12KaxTagBinary10ClassInfosE,
                            __ZN11libmatroska12KaxTagBinaryC1Ev,
                            __ZN11libmatroska12KaxTagBinaryC2Ev,
                            __ZN11libmatroska12KaxTagLangue10ClassInfosE,
                            __ZN11libmatroska12KaxTagLangueC1Ev,
                            __ZN11libmatroska12KaxTagLangueC2Ev,
                            __ZN11libmatroska12KaxTagSimple10ClassInfosE,
                            __ZN11libmatroska12KaxTagSimpleC1Ev,
                            __ZN11libmatroska12KaxTagSimpleC2Ev,
                            __ZN11libmatroska12KaxTagString10ClassInfosE,
                            __ZN11libmatroska12KaxTagStringC1Ev,
                            __ZN11libmatroska12KaxTagStringC2Ev,
                            __ZN11libmatroska12KaxTimeSlice10ClassInfosE,
                            __ZN11libmatroska12KaxTimeSlice10RenderDataERN7libebml10IOCallbackEbb,
                            __ZN11libmatroska12KaxTimeSliceC1Ev,
                            __ZN11libmatroska12KaxTimeSliceC2Ev,
                            __ZN11libmatroska12KaxTrackName10ClassInfosE,
                            __ZN11libmatroska12KaxTrackNameC1Ev,
                            __ZN11libmatroska12KaxTrackNameC2Ev,
                            __ZN11libmatroska12KaxTrackType10ClassInfosE,
                            __ZN11libmatroska12KaxTrackTypeC1Ev,
                            __ZN11libmatroska12KaxTrackTypeC2Ev,
                            __ZN11libmatroska13KaxBlockAddID10ClassInfosE,
                            __ZN11libmatroska13KaxBlockAddIDC1Ev,
                            __ZN11libmatroska13KaxBlockAddIDC2Ev,
                            __ZN11libmatroska13KaxBlockGroup10ClassInfosE,
                            __ZN11libmatroska13KaxBlockGroup13ReleaseFramesEv,
                            __ZN11libmatroska13KaxBlockGroup16SetBlockDurationEy,
                            __ZN11libmatroska13KaxBlockGroup8AddFrameERKNS_13KaxTrackEntryEyRNS_10DataBufferENS_10LacingTypeE,
                            __ZN11libmatroska13KaxBlockGroup8AddFrameERKNS_13KaxTrackEntryEyRNS_10DataBufferEPKNS_12KaxBlockBlobES8_NS_10LacingTypeE,
                            __ZN11libmatroska13KaxBlockGroup8AddFrameERKNS_13KaxTrackEntryEyRNS_10DataBufferERKS0_NS_10LacingTypeE,
                            __ZN11libmatroska13KaxBlockGroup8AddFrameERKNS_13KaxTrackEntryEyRNS_10DataBufferERKS0_S7_NS_10LacingTypeE,
                            __ZN11libmatroska13KaxBlockGroup9SetParentERNS_10KaxClusterE,
                            __ZN11libmatroska13KaxBlockGroupC1Ev,
                            __ZN11libmatroska13KaxBlockGroupC2Ev,
                            __ZN11libmatroska13KaxBlockGroupcvRNS_16KaxInternalBlockEEv,
                            __ZN11libmatroska13KaxChapterUID10ClassInfosE,
                            __ZN11libmatroska13KaxChapterUIDC1Ev,
                            __ZN11libmatroska13KaxChapterUIDC2Ev,
                            __ZN11libmatroska13KaxCodecDelay10ClassInfosE,
                            __ZN11libmatroska13KaxCodecDelayC1Ev,
                            __ZN11libmatroska13KaxCodecDelayC2Ev,
                            __ZN11libmatroska13KaxCodecState10ClassInfosE,
                            __ZN11libmatroska13KaxCodecStateC1Ev,
                            __ZN11libmatroska13KaxCodecStateC2Ev,
                            __ZN11libmatroska13KaxCueRefTime10ClassInfosE,
                            __ZN11libmatroska13KaxCueRefTimeC1Ev,
                            __ZN11libmatroska13KaxCueRefTimeC2Ev,
                            __ZN11libmatroska13KaxEditionUID10ClassInfosE,
                            __ZN11libmatroska13KaxEditionUIDC1Ev,
                            __ZN11libmatroska13KaxEditionUIDC2Ev,
                            __ZN11libmatroska13KaxSegmentUID10ClassInfosE,
                            __ZN11libmatroska13KaxSegmentUIDC1Ev,
                            __ZN11libmatroska13KaxSegmentUIDC2Ev,
                            __ZN11libmatroska13KaxSliceDelay10ClassInfosE,
                            __ZN11libmatroska13KaxSliceDelay10RenderDataERN7libebml10IOCallbackEbb,
                            __ZN11libmatroska13KaxSliceDelayC1Ev,
                            __ZN11libmatroska13KaxSliceDelayC2Ev,
                            __ZN11libmatroska13KaxTagDefault10ClassInfosE,
                            __ZN11libmatroska13KaxTagDefaultC1Ev,
                            __ZN11libmatroska13KaxTagDefaultC2Ev,
                            __ZN11libmatroska13KaxTagTargets10ClassInfosE,
                            __ZN11libmatroska13KaxTagTargetsC1Ev,
                            __ZN11libmatroska13KaxTagTargetsC2Ev,
                            __ZN11libmatroska13KaxTrackAudio10ClassInfosE,
                            __ZN11libmatroska13KaxTrackAudioC1Ev,
                            __ZN11libmatroska13KaxTrackAudioC2Ev,
                            __ZN11libmatroska13KaxTrackEntry10ClassInfosE,
                            __ZN11libmatroska13KaxTrackEntry12EnableLacingEb,
                            __ZN11libmatroska13KaxTrackEntryC1Ev,
                            __ZN11libmatroska13KaxTrackEntryC2Ev,
                            __ZN11libmatroska13KaxTrackPlane10ClassInfosE,
                            __ZN11libmatroska13KaxTrackPlaneC1Ev,
                            __ZN11libmatroska13KaxTrackPlaneC2Ev,
                            __ZN11libmatroska13KaxTrackVideo10ClassInfosE,
                            __ZN11libmatroska13KaxTrackVideoC1Ev,
                            __ZN11libmatroska13KaxTrackVideoC2Ev,
                            __ZN11libmatroska13KaxVideoGamma10ClassInfosE,
                            __ZN11libmatroska13KaxVideoGamma10RenderDataERN7libebml10IOCallbackEbb,
                            __ZN11libmatroska13KaxVideoGammaC1Ev,
                            __ZN11libmatroska13KaxVideoGammaC2Ev,
                            __ZN11libmatroska13KaxWritingApp10ClassInfosE,
                            __ZN11libmatroska13KaxWritingAppC1Ev,
                            __ZN11libmatroska13KaxWritingAppC2Ev,
                            __ZN11libmatroska14KaxAttachments10ClassInfosE,
                            __ZN11libmatroska14KaxAttachmentsC1Ev,
                            __ZN11libmatroska14KaxAttachmentsC2Ev,
                            __ZN11libmatroska14KaxChapterAtom10ClassInfosE,
                            __ZN11libmatroska14KaxChapterAtomC1Ev,
                            __ZN11libmatroska14KaxChapterAtomC2Ev,
                            __ZN11libmatroska14KaxCueDuration10ClassInfosE,
                            __ZN11libmatroska14KaxCueDurationC1Ev,
                            __ZN11libmatroska14KaxCueDurationC2Ev,
                            __ZN11libmatroska14KaxSeekPreRoll10ClassInfosE,
                            __ZN11libmatroska14KaxSeekPreRollC1Ev,
                            __ZN11libmatroska14KaxSeekPreRollC2Ev,
                            __ZN11libmatroska14KaxSimpleBlock10ClassInfosE,
                            __ZN11libmatroska14KaxSimpleBlock9SetParentERNS_10KaxClusterE,
                            __ZN11libmatroska14KaxTagTrackUID10ClassInfosE,
                            __ZN11libmatroska14KaxTagTrackUIDC1Ev,
                            __ZN11libmatroska14KaxTagTrackUIDC2Ev,
                            __ZN11libmatroska14KaxTag_ContextE,
                            __ZN11libmatroska14KaxTrackNumber10ClassInfosE,
                            __ZN11libmatroska14KaxTrackNumberC1Ev,
                            __ZN11libmatroska14KaxTrackNumberC2Ev,
                            __ZN11libmatroska14KaxTrackOffset10ClassInfosE,
                            __ZN11libmatroska14KaxTrackOffset10RenderDataERN7libebml10IOCallbackEbb,
                            __ZN11libmatroska14KaxTrackOffsetC1Ev,
                            __ZN11libmatroska14KaxTrackOffsetC2Ev,
                            __ZN11libmatroska14KaxVideoColour10ClassInfosE,
                            __ZN11libmatroska14KaxVideoColourC1Ev,
                            __ZN11libmatroska14KaxVideoColourC2Ev,
                            __ZN11libmatroska15KaxBlockVirtual10ClassInfosE,
                            __ZN11libmatroska15KaxBlockVirtual10RenderDataERN7libebml10IOCallbackEbb,
                            __ZN11libmatroska15KaxBlockVirtual10UpdateSizeEbb,
                            __ZN11libmatroska15KaxBlockVirtual8ReadDataERN7libebml10IOCallbackENS1_9ScopeModeE,
                            __ZN11libmatroska15KaxBlockVirtualC1ERKS0_,
                            __ZN11libmatroska15KaxBlockVirtualC1Ev,
                            __ZN11libmatroska15KaxBlockVirtualC2ERKS0_,
                            __ZN11libmatroska15KaxBlockVirtualC2Ev,
                            __ZN11libmatroska15KaxBlockVirtualD0Ev,
                            __ZN11libmatroska15KaxBlockVirtualD1Ev,
                            __ZN11libmatroska15KaxBlockVirtualD2Ev,
                            __ZN11libmatroska15KaxChapterTrack10ClassInfosE,
                            __ZN11libmatroska15KaxChapterTrackC1Ev,
                            __ZN11libmatroska15KaxChapterTrackC2Ev,
                            __ZN11libmatroska15KaxCodecInfoURL10ClassInfosE,
                            __ZN11libmatroska15KaxCodecInfoURL10RenderDataERN7libebml10IOCallbackEbb,
                            __ZN11libmatroska15KaxCodecInfoURLC1Ev,
                            __ZN11libmatroska15KaxCodecInfoURLC2Ev,
                            __ZN11libmatroska15KaxCodecPrivate10ClassInfosE,
                            __ZN11libmatroska15KaxCodecPrivateC1Ev,
                            __ZN11libmatroska15KaxCodecPrivateC2Ev,
                            __ZN11libmatroska15KaxCueRefNumber10ClassInfosE,
                            __ZN11libmatroska15KaxCueRefNumber10RenderDataERN7libebml10IOCallbackEbb,
                            __ZN11libmatroska15KaxCueRefNumberC1Ev,
                            __ZN11libmatroska15KaxCueRefNumberC2Ev,
                            __ZN11libmatroska15KaxCueReference10ClassInfosE,
                            __ZN11libmatroska15KaxCueReference12AddReferenceERKNS_12KaxBlockBlobEy,
                            __ZN11libmatroska15KaxCueReferenceC1Ev,
                            __ZN11libmatroska15KaxCueReferenceC2Ev,
                            __ZN11libmatroska15KaxCues_ContextE,
                            __ZN11libmatroska15KaxEditionEntry10ClassInfosE,
                            __ZN11libmatroska15KaxEditionEntryC1Ev,
                            __ZN11libmatroska15KaxEditionEntryC2Ev,
                            __ZN11libmatroska15KaxFileReferral10ClassInfosE,
                            __ZN11libmatroska15KaxFileReferral10RenderDataERN7libebml10IOCallbackEbb,
                            __ZN11libmatroska15KaxFileReferralC1Ev,
                            __ZN11libmatroska15KaxFileReferralC2Ev,
                            __ZN11libmatroska15KaxFlagOriginal10ClassInfosE,
                            __ZN11libmatroska15KaxFlagOriginalC1Ev,
                            __ZN11libmatroska15KaxFlagOriginalC2Ev,
                            __ZN11libmatroska15KaxInfo_ContextE,
                            __ZN11libmatroska15KaxLanguageIETF10ClassInfosE,
                            __ZN11libmatroska15KaxLanguageIETFC1Ev,
                            __ZN11libmatroska15KaxLanguageIETFC2Ev,
                            __ZN11libmatroska15KaxNextFilename10ClassInfosE,
                            __ZN11libmatroska15KaxNextFilenameC1Ev,
                            __ZN11libmatroska15KaxNextFilenameC2Ev,
                            __ZN11libmatroska15KaxPrevFilename10ClassInfosE,
                            __ZN11libmatroska15KaxPrevFilenameC1Ev,
                            __ZN11libmatroska15KaxPrevFilenameC2Ev,
                            __ZN11libmatroska15KaxSeekPosition10ClassInfosE,
                            __ZN11libmatroska15KaxSeekPositionC1Ev,
                            __ZN11libmatroska15KaxSeekPositionC2Ev,
                            __ZN11libmatroska15KaxTags_ContextE,
                            __ZN11libmatroska15KaxTrackJoinUID10ClassInfosE,
                            __ZN11libmatroska15KaxTrackJoinUIDC1Ev,
                            __ZN11libmatroska15KaxTrackJoinUIDC2Ev,
                            __ZN11libmatroska15KaxTrackOverlay10ClassInfosE,
                            __ZN11libmatroska15KaxTrackOverlayC1Ev,
                            __ZN11libmatroska15KaxTrackOverlayC2Ev,
                            __ZN11libmatroska16KaxAudioBitDepth10ClassInfosE,
                            __ZN11libmatroska16KaxAudioBitDepthC1Ev,
                            __ZN11libmatroska16KaxAudioBitDepthC2Ev,
                            __ZN11libmatroska16KaxAudioChannels10ClassInfosE,
                            __ZN11libmatroska16KaxAudioChannelsC1Ev,
                            __ZN11libmatroska16KaxAudioChannelsC2Ev,
                            __ZN11libmatroska16KaxAudioPosition10ClassInfosE,
                            __ZN11libmatroska16KaxAudioPosition10RenderDataERN7libebml10IOCallbackEbb,
                            __ZN11libmatroska16KaxAudioPositionC1Ev,
                            __ZN11libmatroska16KaxAudioPositionC2Ev,
                            __ZN11libmatroska16KaxBlockDuration10ClassInfosE,
                            __ZN11libmatroska16KaxBlockDurationC1Ev,
                            __ZN11libmatroska16KaxBlockDurationC2Ev,
                            __ZN11libmatroska16KaxChapterString10ClassInfosE,
                            __ZN11libmatroska16KaxChapterStringC1Ev,
                            __ZN11libmatroska16KaxChapterStringC2Ev,
                            __ZN11libmatroska16KaxCodecSettings10ClassInfosE,
                            __ZN11libmatroska16KaxCodecSettings10RenderDataERN7libebml10IOCallbackEbb,
                            __ZN11libmatroska16KaxCodecSettingsC1Ev,
                            __ZN11libmatroska16KaxCodecSettingsC2Ev,
                            __ZN11libmatroska16KaxCueCodecState10ClassInfosE,
                            __ZN11libmatroska16KaxCueCodecStateC1Ev,
                            __ZN11libmatroska16KaxCueCodecStateC2Ev,
                            __ZN11libmatroska16KaxCueRefCluster10ClassInfosE,
                            __ZN11libmatroska16KaxCueRefCluster10RenderDataERN7libebml10IOCallbackEbb,
                            __ZN11libmatroska16KaxCueRefClusterC1Ev,
                            __ZN11libmatroska16KaxCueRefClusterC2Ev,
                            __ZN11libmatroska16KaxInternalBlock10RenderDataERN7libebml10IOCallbackEbb,
                            __ZN11libmatroska16KaxInternalBlock10UpdateSizeEbb,
                            __ZN11libmatroska16KaxInternalBlock12GetFrameSizeEm,
                            __ZN11libmatroska16KaxInternalBlock13ReleaseFramesEv,
                            __ZN11libmatroska16KaxInternalBlock15GetDataPositionEm,
                            __ZN11libmatroska16KaxInternalBlock16ReadInternalHeadERN7libebml10IOCallbackE,
                            __ZN11libmatroska16KaxInternalBlock8AddFrameERKNS_13KaxTrackEntryEyRNS_10DataBufferENS_10LacingTypeEb,
                            __ZN11libmatroska16KaxInternalBlock8ReadDataERN7libebml10IOCallbackENS1_9ScopeModeE,
                            __ZN11libmatroska16KaxInternalBlock9SetParentERNS_10KaxClusterE,
                            __ZN11libmatroska16KaxInternalBlockC2ERKS0_,
                            __ZN11libmatroska16KaxInternalBlockD0Ev,
                            __ZN11libmatroska16KaxInternalBlockD1Ev,
                            __ZN11libmatroska16KaxInternalBlockD2Ev,
                            __ZN11libmatroska16KaxOldStereoMode10ClassInfosE,
                            __ZN11libmatroska16KaxOldStereoMode10RenderDataERN7libebml10IOCallbackEbb,
                            __ZN11libmatroska16KaxOldStereoModeC1Ev,
                            __ZN11libmatroska16KaxOldStereoModeC2Ev,
                            __ZN11libmatroska16KaxSegmentFamily10ClassInfosE,
                            __ZN11libmatroska16KaxSegmentFamilyC1Ev,
                            __ZN11libmatroska16KaxSegmentFamilyC2Ev,
                            __ZN11libmatroska16KaxSliceDuration10ClassInfosE,
                            __ZN11libmatroska16KaxSliceDuration10RenderDataERN7libebml10IOCallbackEbb,
                            __ZN11libmatroska16KaxSliceDurationC1Ev,
                            __ZN11libmatroska16KaxSliceDurationC2Ev,
                            __ZN11libmatroska16KaxTagChapterUID10ClassInfosE,
                            __ZN11libmatroska16KaxTagChapterUIDC1Ev,
                            __ZN11libmatroska16KaxTagChapterUIDC2Ev,
                            __ZN11libmatroska16KaxTagEditionUID10ClassInfosE,
                            __ZN11libmatroska16KaxTagEditionUIDC1Ev,
                            __ZN11libmatroska16KaxTagEditionUIDC2Ev,
                            __ZN11libmatroska16KaxTagTargetType10ClassInfosE,
                            __ZN11libmatroska16KaxTagTargetTypeC1Ev,
                            __ZN11libmatroska16KaxTagTargetTypeC2Ev,
                            __ZN11libmatroska16KaxTimecodeScale10ClassInfosE,
                            __ZN11libmatroska16KaxTimecodeScaleC1Ev,
                            __ZN11libmatroska16KaxTimecodeScaleC2Ev,
                            __ZN11libmatroska16KaxTrackLanguage10ClassInfosE,
                            __ZN11libmatroska16KaxTrackLanguageC1Ev,
                            __ZN11libmatroska16KaxTrackLanguageC2Ev,
                            __ZN11libmatroska16KaxTrackMaxCache10ClassInfosE,
                            __ZN11libmatroska16KaxTrackMaxCacheC1Ev,
                            __ZN11libmatroska16KaxTrackMaxCacheC2Ev,
                            __ZN11libmatroska16KaxTrackMinCache10ClassInfosE,
                            __ZN11libmatroska16KaxTrackMinCacheC1Ev,
                            __ZN11libmatroska16KaxTrackMinCacheC2Ev,
                            __ZN11libmatroska16KaxTrackPlaneUID10ClassInfosE,
                            __ZN11libmatroska16KaxTrackPlaneUIDC1Ev,
                            __ZN11libmatroska16KaxTrackPlaneUIDC2Ev,
                            __ZN11libmatroska16KaxTrickTrackUID10ClassInfosE,
                            __ZN11libmatroska16KaxTrickTrackUIDC1Ev,
                            __ZN11libmatroska16KaxTrickTrackUIDC2Ev,
                            __ZN11libmatroska16KaxVideoBChromaX10ClassInfosE,
                            __ZN11libmatroska16KaxVideoBChromaXC1Ev,
                            __ZN11libmatroska16KaxVideoBChromaXC2Ev,
                            __ZN11libmatroska16KaxVideoBChromaY10ClassInfosE,
                            __ZN11libmatroska16KaxVideoBChromaYC1Ev,
                            __ZN11libmatroska16KaxVideoBChromaYC2Ev,
                            __ZN11libmatroska16KaxVideoGChromaX10ClassInfosE,
                            __ZN11libmatroska16KaxVideoGChromaXC1Ev,
                            __ZN11libmatroska16KaxVideoGChromaXC2Ev,
                            __ZN11libmatroska16KaxVideoGChromaY10ClassInfosE,
                            __ZN11libmatroska16KaxVideoGChromaYC1Ev,
                            __ZN11libmatroska16KaxVideoGChromaYC2Ev,
                            __ZN11libmatroska16KaxVideoRChromaX10ClassInfosE,
                            __ZN11libmatroska16KaxVideoRChromaXC1Ev,
                            __ZN11libmatroska16KaxVideoRChromaXC2Ev,
                            __ZN11libmatroska16KaxVideoRChromaY10ClassInfosE,
                            __ZN11libmatroska16KaxVideoRChromaYC1Ev,
                            __ZN11libmatroska16KaxVideoRChromaYC2Ev,
                            __ZN11libmatroska16SimpleDataBufferC1ERKS0_,
                            __ZN11libmatroska16SimpleDataBufferC2ERKS0_,
                            __ZN11libmatroska17KaxBlockAddIDName10ClassInfosE,
                            __ZN11libmatroska17KaxBlockAddIDNameC1Ev,
                            __ZN11libmatroska17KaxBlockAddIDNameC2Ev,
                            __ZN11libmatroska17KaxBlockAddIDType10ClassInfosE,
                            __ZN11libmatroska17KaxBlockAddIDTypeC1Ev,
                            __ZN11libmatroska17KaxBlockAddIDTypeC2Ev,
                            __ZN11libmatroska17KaxBlockAdditions10ClassInfosE,
                            __ZN11libmatroska17KaxBlockAdditionsC1Ev,
                            __ZN11libmatroska17KaxBlockAdditionsC2Ev,
                            __ZN11libmatroska17KaxChapterCountry10ClassInfosE,
                            __ZN11libmatroska17KaxChapterCountryC1Ev,
                            __ZN11libmatroska17KaxChapterCountryC2Ev,
                            __ZN11libmatroska17KaxChapterDisplay10ClassInfosE,
                            __ZN11libmatroska17KaxChapterDisplayC1Ev,
                            __ZN11libmatroska17KaxChapterDisplayC2Ev,
                            __ZN11libmatroska17KaxChapterProcess10ClassInfosE,
                            __ZN11libmatroska17KaxChapterProcessC1Ev,
                            __ZN11libmatroska17KaxChapterProcessC2Ev,
                            __ZN11libmatroska17KaxChapterTimeEnd10ClassInfosE,
                            __ZN11libmatroska17KaxChapterTimeEndC1Ev,
                            __ZN11libmatroska17KaxChapterTimeEndC2Ev,
                            __ZN11libmatroska17KaxCodecDecodeAll10ClassInfosE,
                            __ZN11libmatroska17KaxCodecDecodeAllC1Ev,
                            __ZN11libmatroska17KaxCodecDecodeAllC2Ev,
                            __ZN11libmatroska17KaxContentEncAlgo10ClassInfosE,
                            __ZN11libmatroska17KaxContentEncAlgoC1Ev,
                            __ZN11libmatroska17KaxContentEncAlgoC2Ev,
                            __ZN11libmatroska17KaxContentSigAlgo10ClassInfosE,
                            __ZN11libmatroska17KaxContentSigAlgoC1Ev,
                            __ZN11libmatroska17KaxContentSigAlgoC2Ev,
                            __ZN11libmatroska17KaxCueBlockNumber10ClassInfosE,
                            __ZN11libmatroska17KaxCueBlockNumberC1Ev,
                            __ZN11libmatroska17KaxCueBlockNumberC2Ev,
                            __ZN11libmatroska17KaxDiscardPadding10ClassInfosE,
                            __ZN11libmatroska17KaxDiscardPaddingC1Ev,
                            __ZN11libmatroska17KaxDiscardPaddingC2Ev,
                            __ZN11libmatroska17KaxEncryptedBlock10ClassInfosE,
                            __ZN11libmatroska17KaxEncryptedBlock10RenderDataERN7libebml10IOCallbackEbb,
                            __ZN11libmatroska17KaxEncryptedBlockC1Ev,
                            __ZN11libmatroska17KaxEncryptedBlockC2Ev,
                            __ZN11libmatroska17KaxFlagCommentary10ClassInfosE,
                            __ZN11libmatroska17KaxFlagCommentaryC1Ev,
                            __ZN11libmatroska17KaxFlagCommentaryC2Ev,
                            __ZN11libmatroska17KaxReferenceBlock10ClassInfosE,
                            __ZN11libmatroska17KaxReferenceBlock10UpdateSizeEbb,
                            __ZN11libmatroska17KaxReferenceBlock18SetReferencedBlockEPKNS_12KaxBlockBlobE,
                            __ZN11libmatroska17KaxReferenceBlock18SetReferencedBlockERKNS_13KaxBlockGroupE,
                            __ZN11libmatroska17KaxReferenceBlock8FreeBlobEv,
                            __ZN11libmatroska17KaxReferenceBlockC1ERKS0_,
                            __ZN11libmatroska17KaxReferenceBlockC1Ev,
                            __ZN11libmatroska17KaxReferenceBlockC2ERKS0_,
                            __ZN11libmatroska17KaxReferenceBlockC2Ev,
                            __ZN11libmatroska17KaxReferenceBlockD0Ev,
                            __ZN11libmatroska17KaxReferenceBlockD1Ev,
                            __ZN11libmatroska17KaxReferenceBlockD2Ev,
                            __ZN11libmatroska17KaxReferenceFrame10ClassInfosE,
                            __ZN11libmatroska17KaxReferenceFrameC1Ev,
                            __ZN11libmatroska17KaxReferenceFrameC2Ev,
                            __ZN11libmatroska17KaxTrackOperation10ClassInfosE,
                            __ZN11libmatroska17KaxTrackOperationC1Ev,
                            __ZN11libmatroska17KaxTrackOperationC2Ev,
                            __ZN11libmatroska17KaxTrackPlaneType10ClassInfosE,
                            __ZN11libmatroska17KaxTrackPlaneTypeC1Ev,
                            __ZN11libmatroska17KaxTrackPlaneTypeC2Ev,
                            __ZN11libmatroska17KaxTrackTranslate10ClassInfosE,
                            __ZN11libmatroska17KaxTrackTranslateC1Ev,
                            __ZN11libmatroska17KaxTrackTranslateC2Ev,
                            __ZN11libmatroska17KaxTracks_ContextE,
                            __ZN11libmatroska17KaxTrickTrackFlag10ClassInfosE,
                            __ZN11libmatroska17KaxTrickTrackFlagC1Ev,
                            __ZN11libmatroska17KaxTrickTrackFlagC2Ev,
                            __ZN11libmatroska17KaxVideoAlphaMode10ClassInfosE,
                            __ZN11libmatroska17KaxVideoAlphaModeC1Ev,
                            __ZN11libmatroska17KaxVideoAlphaModeC2Ev,
                            __ZN11libmatroska17KaxVideoFrameRate10ClassInfosE,
                            __ZN11libmatroska17KaxVideoFrameRate10RenderDataERN7libebml10IOCallbackEbb,
                            __ZN11libmatroska17KaxVideoFrameRateC1Ev,
                            __ZN11libmatroska17KaxVideoFrameRateC2Ev,
                            __ZN11libmatroska18KaxBlockAddIDValue10ClassInfosE,
                            __ZN11libmatroska18KaxBlockAddIDValueC1Ev,
                            __ZN11libmatroska18KaxBlockAddIDValueC2Ev,
                            __ZN11libmatroska18KaxBlockAdditional10ClassInfosE,
                            __ZN11libmatroska18KaxBlockAdditionalC1Ev,
                            __ZN11libmatroska18KaxBlockAdditionalC2Ev,
                            __ZN11libmatroska18KaxChapterLanguage10ClassInfosE,
                            __ZN11libmatroska18KaxChapterLanguageC1Ev,
                            __ZN11libmatroska18KaxChapterLanguageC2Ev,
                            __ZN11libmatroska18KaxClusterPosition10ClassInfosE,
                            __ZN11libmatroska18KaxClusterPositionC1Ev,
                            __ZN11libmatroska18KaxClusterPositionC2Ev,
                            __ZN11libmatroska18KaxClusterPrevSize10ClassInfosE,
                            __ZN11libmatroska18KaxClusterPrevSizeC1Ev,
                            __ZN11libmatroska18KaxClusterPrevSizeC2Ev,
                            __ZN11libmatroska18KaxClusterTimecode10ClassInfosE,
                            __ZN11libmatroska18KaxClusterTimecodeC1Ev,
                            __ZN11libmatroska18KaxClusterTimecodeC2Ev,
                            __ZN11libmatroska18KaxCluster_ContextE,
                            __ZN11libmatroska18KaxContentCompAlgo10ClassInfosE,
                            __ZN11libmatroska18KaxContentCompAlgoC1Ev,
                            __ZN11libmatroska18KaxContentCompAlgoC2Ev,
                            __ZN11libmatroska18KaxContentEncKeyID10ClassInfosE,
                            __ZN11libmatroska18KaxContentEncKeyIDC1Ev,
                            __ZN11libmatroska18KaxContentEncKeyIDC2Ev,
                            __ZN11libmatroska18KaxContentEncoding10ClassInfosE,
                            __ZN11libmatroska18KaxContentEncodingC1Ev,
                            __ZN11libmatroska18KaxContentEncodingC2Ev,
                            __ZN11libmatroska18KaxContentSigKeyID10ClassInfosE,
                            __ZN11libmatroska18KaxContentSigKeyIDC1Ev,
                            __ZN11libmatroska18KaxContentSigKeyIDC2Ev,
                            __ZN11libmatroska18KaxFileDescription10ClassInfosE,
                            __ZN11libmatroska18KaxFileDescriptionC1Ev,
                            __ZN11libmatroska18KaxFileDescriptionC2Ev,
                            __ZN11libmatroska18KaxFileUsedEndTime10ClassInfosE,
                            __ZN11libmatroska18KaxFileUsedEndTime10RenderDataERN7libebml10IOCallbackEbb,
                            __ZN11libmatroska18KaxFileUsedEndTimeC1Ev,
                            __ZN11libmatroska18KaxFileUsedEndTimeC2Ev,
                            __ZN11libmatroska18KaxReferenceOffset10ClassInfosE,
                            __ZN11libmatroska18KaxReferenceOffsetC1Ev,
                            __ZN11libmatroska18KaxReferenceOffsetC2Ev,
                            __ZN11libmatroska18KaxSegmentFilename10ClassInfosE,
                            __ZN11libmatroska18KaxSegmentFilenameC1Ev,
                            __ZN11libmatroska18KaxSegmentFilenameC2Ev,
                            __ZN11libmatroska18KaxSegment_ContextE,
                            __ZN11libmatroska18KaxSliceBlockAddID10ClassInfosE,
                            __ZN11libmatroska18KaxSliceBlockAddID10RenderDataERN7libebml10IOCallbackEbb,
                            __ZN11libmatroska18KaxSliceBlockAddIDC1Ev,
                            __ZN11libmatroska18KaxSliceBlockAddIDC2Ev,
                            __ZN11libmatroska18KaxSliceLaceNumber10ClassInfosE,
                            __ZN11libmatroska18KaxSliceLaceNumber10RenderDataERN7libebml10IOCallbackEbb,
                            __ZN11libmatroska18KaxSliceLaceNumberC1Ev,
                            __ZN11libmatroska18KaxSliceLaceNumberC2Ev,
                            __ZN11libmatroska18KaxTagLanguageIETF10ClassInfosE,
                            __ZN11libmatroska18KaxTagLanguageIETFC1Ev,
                            __ZN11libmatroska18KaxTagLanguageIETFC2Ev,
                            __ZN11libmatroska18KaxTrackFlagForced10ClassInfosE,
                            __ZN11libmatroska18KaxTrackFlagForcedC1Ev,
                            __ZN11libmatroska18KaxTrackFlagForcedC2Ev,
                            __ZN11libmatroska18KaxTrackFlagLacing10ClassInfosE,
                            __ZN11libmatroska18KaxTrackFlagLacingC1Ev,
                            __ZN11libmatroska18KaxTrackFlagLacingC2Ev,
                            __ZN11libmatroska18KaxTrackJoinBlocks10ClassInfosE,
                            __ZN11libmatroska18KaxTrackJoinBlocksC1Ev,
                            __ZN11libmatroska18KaxTrackJoinBlocksC2Ev,
                            __ZN11libmatroska18KaxVideoFieldOrder10ClassInfosE,
                            __ZN11libmatroska18KaxVideoFieldOrderC1Ev,
                            __ZN11libmatroska18KaxVideoFieldOrderC2Ev,
                            __ZN11libmatroska18KaxVideoPixelWidth10ClassInfosE,
                            __ZN11libmatroska18KaxVideoPixelWidthC1Ev,
                            __ZN11libmatroska18KaxVideoPixelWidthC2Ev,
                            __ZN11libmatroska18KaxVideoProjection10ClassInfosE,
                            __ZN11libmatroska18KaxVideoProjectionC1Ev,
                            __ZN11libmatroska18KaxVideoProjectionC2Ev,
                            __ZN11libmatroska18KaxVideoStereoMode10ClassInfosE,
                            __ZN11libmatroska18KaxVideoStereoModeC1Ev,
                            __ZN11libmatroska18KaxVideoStereoModeC2Ev,
                            __ZN11libmatroska19KaxAttached_ContextE,
                            __ZN11libmatroska19KaxChapLanguageIETF10ClassInfosE,
                            __ZN11libmatroska19KaxChapLanguageIETFC1Ev,
                            __ZN11libmatroska19KaxChapLanguageIETFC2Ev,
                            __ZN11libmatroska19KaxChapterStringUID10ClassInfosE,
                            __ZN11libmatroska19KaxChapterStringUIDC1Ev,
                            __ZN11libmatroska19KaxChapterStringUIDC2Ev,
                            __ZN11libmatroska19KaxChapterTimeStart10ClassInfosE,
                            __ZN11libmatroska19KaxChapterTimeStartC1Ev,
                            __ZN11libmatroska19KaxChapterTimeStartC2Ev,
                            __ZN11libmatroska19KaxChapterTranslate10ClassInfosE,
                            __ZN11libmatroska19KaxChapterTranslateC1Ev,
                            __ZN11libmatroska19KaxChapterTranslateC2Ev,
                            __ZN11libmatroska19KaxChapters_ContextE,
                            __ZN11libmatroska19KaxCodecDownloadURL10ClassInfosE,
                            __ZN11libmatroska19KaxCodecDownloadURL10RenderDataERN7libebml10IOCallbackEbb,
                            __ZN11libmatroska19KaxCodecDownloadURLC1Ev,
                            __ZN11libmatroska19KaxCodecDownloadURLC2Ev,
                            __ZN11libmatroska19KaxContentEncodings10ClassInfosE,
                            __ZN11libmatroska19KaxContentEncodingsC1Ev,
                            __ZN11libmatroska19KaxContentEncodingsC2Ev,
                            __ZN11libmatroska19KaxContentSignature10ClassInfosE,
                            __ZN11libmatroska19KaxContentSignatureC1Ev,
                            __ZN11libmatroska19KaxContentSignatureC2Ev,
                            __ZN11libmatroska19KaxCueRefCodecState10ClassInfosE,
                            __ZN11libmatroska19KaxCueRefCodecState10RenderDataERN7libebml10IOCallbackEbb,
                            __ZN11libmatroska19KaxCueRefCodecStateC1Ev,
                            __ZN11libmatroska19KaxCueRefCodecStateC2Ev,
                            __ZN11libmatroska19KaxMatroska_ContextE,
                            __ZN11libmatroska19KaxReferenceVirtual10ClassInfosE,
                            __ZN11libmatroska19KaxReferenceVirtual10RenderDataERN7libebml10IOCallbackEbb,
                            __ZN11libmatroska19KaxReferenceVirtualC1Ev,
                            __ZN11libmatroska19KaxReferenceVirtualC2Ev,
                            __ZN11libmatroska19KaxSeekHead_ContextE,
                            __ZN11libmatroska19KaxSliceFrameNumber10ClassInfosE,
                            __ZN11libmatroska19KaxSliceFrameNumber10RenderDataERN7libebml10IOCallbackEbb,
                            __ZN11libmatroska19KaxSliceFrameNumberC1Ev,
                            __ZN11libmatroska19KaxSliceFrameNumberC2Ev,
                            __ZN11libmatroska19KaxTagAttachmentUID10ClassInfosE,
                            __ZN11libmatroska19KaxTagAttachmentUIDC1Ev,
                            __ZN11libmatroska19KaxTagAttachmentUIDC2Ev,
                            __ZN11libmatroska19KaxTrackFlagDefault10ClassInfosE,
                            __ZN11libmatroska19KaxTrackFlagDefaultC1Ev,
                            __ZN11libmatroska19KaxTrackFlagDefaultC2Ev,
                            __ZN11libmatroska19KaxTrackFlagEnabled10ClassInfosE,
                            __ZN11libmatroska19KaxTrackFlagEnabledC1Ev,
                            __ZN11libmatroska19KaxTrackFlagEnabledC2Ev,
                            __ZN11libmatroska19KaxVideoAspectRatio10ClassInfosE,
                            __ZN11libmatroska19KaxVideoAspectRatioC1Ev,
                            __ZN11libmatroska19KaxVideoAspectRatioC2Ev,
                            __ZN11libmatroska19KaxVideoColourRange10ClassInfosE,
                            __ZN11libmatroska19KaxVideoColourRangeC1Ev,
                            __ZN11libmatroska19KaxVideoColourRangeC2Ev,
                            __ZN11libmatroska19KaxVideoColourSpace10ClassInfosE,
                            __ZN11libmatroska19KaxVideoColourSpaceC1Ev,
                            __ZN11libmatroska19KaxVideoColourSpaceC2Ev,
                            __ZN11libmatroska19KaxVideoDisplayUnit10ClassInfosE,
                            __ZN11libmatroska19KaxVideoDisplayUnitC1Ev,
                            __ZN11libmatroska19KaxVideoDisplayUnitC2Ev,
                            __ZN11libmatroska19KaxVideoPixelHeight10ClassInfosE,
                            __ZN11libmatroska19KaxVideoPixelHeightC1Ev,
                            __ZN11libmatroska19KaxVideoPixelHeightC2Ev,
                            __ZN11libmatroska20GetKaxGlobal_ContextEv,
                            __ZN11libmatroska20KaxAudioSamplingFreq10ClassInfosE,
                            __ZN11libmatroska20KaxAudioSamplingFreqC1Ev,
                            __ZN11libmatroska20KaxAudioSamplingFreqC2Ev,
                            __ZN11libmatroska20KaxChapterFlagHidden10ClassInfosE,
                            __ZN11libmatroska20KaxChapterFlagHiddenC1Ev,
                            __ZN11libmatroska20KaxChapterFlagHiddenC2Ev,
                            __ZN11libmatroska20KaxChapterSegmentUID10ClassInfosE,
                            __ZN11libmatroska20KaxChapterSegmentUIDC1Ev,
                            __ZN11libmatroska20KaxChapterSegmentUIDC2Ev,
                            __ZN11libmatroska20KaxContentEncryption10ClassInfosE,
                            __ZN11libmatroska20KaxContentEncryptionC1Ev,
                            __ZN11libmatroska20KaxContentEncryptionC2Ev,
                            __ZN11libmatroska20KaxCueTrackPositions10ClassInfosE,
                            __ZN11libmatroska20KaxCueTrackPositionsC1Ev,
                            __ZN11libmatroska20KaxCueTrackPositionsC2Ev,
                            __ZN11libmatroska20KaxEditionFlagHidden10ClassInfosE,
                            __ZN11libmatroska20KaxEditionFlagHiddenC1Ev,
                            __ZN11libmatroska20KaxEditionFlagHiddenC2Ev,
                            __ZN11libmatroska20KaxFileUsedStartTime10ClassInfosE,
                            __ZN11libmatroska20KaxFileUsedStartTime10RenderDataERN7libebml10IOCallbackEbb,
                            __ZN11libmatroska20KaxFileUsedStartTimeC1Ev,
                            __ZN11libmatroska20KaxFileUsedStartTimeC2Ev,
                            __ZN11libmatroska20KaxReferencePriority10ClassInfosE,
                            __ZN11libmatroska20KaxReferencePriorityC1Ev,
                            __ZN11libmatroska20KaxReferencePriorityC2Ev,
                            __ZN11libmatroska20KaxReferenceTimeCode10ClassInfosE,
                            __ZN11libmatroska20KaxReferenceTimeCodeC1Ev,
                            __ZN11libmatroska20KaxReferenceTimeCodeC2Ev,
                            __ZN11libmatroska20KaxVideoColourMatrix10ClassInfosE,
                            __ZN11libmatroska20KaxVideoColourMatrixC1Ev,
                            __ZN11libmatroska20KaxVideoColourMatrixC2Ev,
                            __ZN11libmatroska20KaxVideoColourMaxCLL10ClassInfosE,
                            __ZN11libmatroska20KaxVideoColourMaxCLLC1Ev,
                            __ZN11libmatroska20KaxVideoColourMaxCLLC2Ev,
                            __ZN11libmatroska20KaxVideoDisplayWidth10ClassInfosE,
                            __ZN11libmatroska20KaxVideoDisplayWidthC1Ev,
                            __ZN11libmatroska20KaxVideoDisplayWidthC2Ev,
                            __ZN11libmatroska20KaxVideoLuminanceMax10ClassInfosE,
                            __ZN11libmatroska20KaxVideoLuminanceMaxC1Ev,
                            __ZN11libmatroska20KaxVideoLuminanceMaxC2Ev,
                            __ZN11libmatroska20KaxVideoLuminanceMin10ClassInfosE,
                            __ZN11libmatroska20KaxVideoLuminanceMinC1Ev,
                            __ZN11libmatroska20KaxVideoLuminanceMinC2Ev,
                            __ZN11libmatroska20KaxVideoPixelCropTop10ClassInfosE,
                            __ZN11libmatroska20KaxVideoPixelCropTopC1Ev,
                            __ZN11libmatroska20KaxVideoPixelCropTopC2Ev,
                            __ZN11libmatroska21KaxBlockGroup_ContextE,
                            __ZN11libmatroska21KaxChapterFlagEnabled10ClassInfosE,
                            __ZN11libmatroska21KaxChapterFlagEnabledC1Ev,
                            __ZN11libmatroska21KaxChapterFlagEnabledC2Ev,
                            __ZN11libmatroska21KaxChapterProcessData10ClassInfosE,
                            __ZN11libmatroska21KaxChapterProcessDataC1Ev,
                            __ZN11libmatroska21KaxChapterProcessDataC2Ev,
                            __ZN11libmatroska21KaxChapterProcessTime10ClassInfosE,
                            __ZN11libmatroska21KaxChapterProcessTimeC1Ev,
                            __ZN11libmatroska21KaxChapterProcessTimeC2Ev,
                            __ZN11libmatroska21KaxChapterTrackNumber10ClassInfosE,
                            __ZN11libmatroska21KaxChapterTrackNumberC1Ev,
                            __ZN11libmatroska21KaxChapterTrackNumberC2Ev,
                            __ZN11libmatroska21KaxChapterTranslateID10ClassInfosE,
                            __ZN11libmatroska21KaxChapterTranslateIDC1Ev,
                            __ZN11libmatroska21KaxChapterTranslateIDC2Ev,
                            __ZN11libmatroska21KaxContentCompression10ClassInfosE,
                            __ZN11libmatroska21KaxContentCompressionC1Ev,
                            __ZN11libmatroska21KaxContentCompressionC2Ev,
                            __ZN11libmatroska21KaxContentSigHashAlgo10ClassInfosE,
                            __ZN11libmatroska21KaxContentSigHashAlgoC1Ev,
                            __ZN11libmatroska21KaxContentSigHashAlgoC2Ev,
                            __ZN11libmatroska21KaxCueClusterPosition10ClassInfosE,
                            __ZN11libmatroska21KaxCueClusterPositionC1Ev,
                            __ZN11libmatroska21KaxCueClusterPositionC2Ev,
                            __ZN11libmatroska21KaxEditionFlagDefault10ClassInfosE,
                            __ZN11libmatroska21KaxEditionFlagDefaultC1Ev,
                            __ZN11libmatroska21KaxEditionFlagDefaultC2Ev,
                            __ZN11libmatroska21KaxEditionFlagOrdered10ClassInfosE,
                            __ZN11libmatroska21KaxEditionFlagOrderedC1Ev,
                            __ZN11libmatroska21KaxEditionFlagOrderedC2Ev,
                            __ZN11libmatroska21KaxFlagVisualImpaired10ClassInfosE,
                            __ZN11libmatroska21KaxFlagVisualImpairedC1Ev,
                            __ZN11libmatroska21KaxFlagVisualImpairedC2Ev,
                            __ZN11libmatroska21KaxMaxBlockAdditionID10ClassInfosE,
                            __ZN11libmatroska21KaxMaxBlockAdditionIDC1Ev,
                            __ZN11libmatroska21KaxMaxBlockAdditionIDC2Ev,
                            __ZN11libmatroska21KaxTagTargetTypeValue10ClassInfosE,
                            __ZN11libmatroska21KaxTagTargetTypeValueC1Ev,
                            __ZN11libmatroska21KaxTagTargetTypeValueC2Ev,
                            __ZN11libmatroska21KaxTrackCombinePlanes10ClassInfosE,
                            __ZN11libmatroska21KaxTrackCombinePlanesC1Ev,
                            __ZN11libmatroska21KaxTrackCombinePlanesC2Ev,
                            __ZN11libmatroska21KaxTrackEntry_ContextE,
                            __ZN11libmatroska21KaxTrackTimecodeScale10ClassInfosE,
                            __ZN11libmatroska21KaxTrackTimecodeScaleC1Ev,
                            __ZN11libmatroska21KaxTrackTimecodeScaleC2Ev,
                            __ZN11libmatroska21KaxVideoCbSubsampHorz10ClassInfosE,
                            __ZN11libmatroska21KaxVideoCbSubsampHorzC1Ev,
                            __ZN11libmatroska21KaxVideoCbSubsampHorzC2Ev,
                            __ZN11libmatroska21KaxVideoCbSubsampVert10ClassInfosE,
                            __ZN11libmatroska21KaxVideoCbSubsampVertC1Ev,
                            __ZN11libmatroska21KaxVideoCbSubsampVertC2Ev,
                            __ZN11libmatroska21KaxVideoChromaSitHorz10ClassInfosE,
                            __ZN11libmatroska21KaxVideoChromaSitHorzC1Ev,
                            __ZN11libmatroska21KaxVideoChromaSitHorzC2Ev,
                            __ZN11libmatroska21KaxVideoChromaSitVert10ClassInfosE,
                            __ZN11libmatroska21KaxVideoChromaSitVertC1Ev,
                            __ZN11libmatroska21KaxVideoChromaSitVertC2Ev,
                            __ZN11libmatroska21KaxVideoColourMaxFALL10ClassInfosE,
                            __ZN11libmatroska21KaxVideoColourMaxFALLC1Ev,
                            __ZN11libmatroska21KaxVideoColourMaxFALLC2Ev,
                            __ZN11libmatroska21KaxVideoDisplayHeight10ClassInfosE,
                            __ZN11libmatroska21KaxVideoDisplayHeightC1Ev,
                            __ZN11libmatroska21KaxVideoDisplayHeightC2Ev,
                            __ZN11libmatroska21KaxVideoPixelCropLeft10ClassInfosE,
                            __ZN11libmatroska21KaxVideoPixelCropLeftC1Ev,
                            __ZN11libmatroska21KaxVideoPixelCropLeftC2Ev,
                            __ZN11libmatroska22KaxAttachments_ContextE,
                            __ZN11libmatroska22KaxBlockAddIDExtraData10ClassInfosE,
                            __ZN11libmatroska22KaxBlockAddIDExtraDataC1Ev,
                            __ZN11libmatroska22KaxBlockAddIDExtraDataC2Ev,
                            __ZN11libmatroska22KaxClusterSilentTracks10ClassInfosE,
                            __ZN11libmatroska22KaxClusterSilentTracksC1Ev,
                            __ZN11libmatroska22KaxClusterSilentTracksC2Ev,
                            __ZN11libmatroska22KaxContentCompSettings10ClassInfosE,
                            __ZN11libmatroska22KaxContentCompSettingsC1Ev,
                            __ZN11libmatroska22KaxContentCompSettingsC2Ev,
                            __ZN11libmatroska22KaxContentEncodingType10ClassInfosE,
                            __ZN11libmatroska22KaxContentEncodingTypeC1Ev,
                            __ZN11libmatroska22KaxContentEncodingTypeC2Ev,
                            __ZN11libmatroska22KaxCueRelativePosition10ClassInfosE,
                            __ZN11libmatroska22KaxCueRelativePositionC1Ev,
                            __ZN11libmatroska22KaxCueRelativePositionC2Ev,
                            __ZN11libmatroska22KaxFlagHearingImpaired10ClassInfosE,
                            __ZN11libmatroska22KaxFlagHearingImpairedC1Ev,
                            __ZN11libmatroska22KaxFlagHearingImpairedC2Ev,
                            __ZN11libmatroska22KaxTrackAttachmentLink10ClassInfosE,
                            __ZN11libmatroska22KaxTrackAttachmentLink10RenderDataERN7libebml10IOCallbackEbb,
                            __ZN11libmatroska22KaxTrackAttachmentLinkC1Ev,
                            __ZN11libmatroska22KaxTrackAttachmentLinkC2Ev,
                            __ZN11libmatroska22KaxTrackTranslateCodec10ClassInfosE,
                            __ZN11libmatroska22KaxTrackTranslateCodecC1Ev,
                            __ZN11libmatroska22KaxTrackTranslateCodecC2Ev,
                            __ZN11libmatroska22KaxTrickMasterTrackUID10ClassInfosE,
                            __ZN11libmatroska22KaxTrickMasterTrackUIDC1Ev,
                            __ZN11libmatroska22KaxTrickMasterTrackUIDC2Ev,
                            __ZN11libmatroska22KaxVideoBitsPerChannel10ClassInfosE,
                            __ZN11libmatroska22KaxVideoBitsPerChannelC1Ev,
                            __ZN11libmatroska22KaxVideoBitsPerChannelC2Ev,
                            __ZN11libmatroska22KaxVideoFlagInterlaced10ClassInfosE,
                            __ZN11libmatroska22KaxVideoFlagInterlacedC1Ev,
                            __ZN11libmatroska22KaxVideoFlagInterlacedC2Ev,
                            __ZN11libmatroska22KaxVideoPixelCropRight10ClassInfosE,
                            __ZN11libmatroska22KaxVideoPixelCropRightC1Ev,
                            __ZN11libmatroska22KaxVideoPixelCropRightC2Ev,
                            __ZN11libmatroska22KaxVideoProjectionType10ClassInfosE,
                            __ZN11libmatroska22KaxVideoProjectionTypeC1Ev,
                            __ZN11libmatroska22KaxVideoProjectionTypeC2Ev,
                            __ZN11libmatroska23KaxBlockAdditionMapping10ClassInfosE,
                            __ZN11libmatroska23KaxBlockAdditionMappingC1Ev,
                            __ZN11libmatroska23KaxBlockAdditionMappingC2Ev,
                            __ZN11libmatroska23KaxChapterPhysicalEquiv10ClassInfosE,
                            __ZN11libmatroska23KaxChapterPhysicalEquivC1Ev,
                            __ZN11libmatroska23KaxChapterPhysicalEquivC2Ev,
                            __ZN11libmatroska23KaxContentEncodingOrder10ClassInfosE,
                            __ZN11libmatroska23KaxContentEncodingOrderC1Ev,
                            __ZN11libmatroska23KaxContentEncodingOrderC2Ev,
                            __ZN11libmatroska23KaxContentEncodingScope10ClassInfosE,
                            __ZN11libmatroska23KaxContentEncodingScopeC1Ev,
                            __ZN11libmatroska23KaxContentEncodingScopeC2Ev,
                            __ZN11libmatroska23KaxFlagTextDescriptions10ClassInfosE,
                            __ZN11libmatroska23KaxFlagTextDescriptionsC1Ev,
                            __ZN11libmatroska23KaxFlagTextDescriptionsC2Ev,
                            __ZN11libmatroska23KaxTrackDefaultDuration10ClassInfosE,
                            __ZN11libmatroska23KaxTrackDefaultDurationC1Ev,
                            __ZN11libmatroska23KaxTrackDefaultDurationC2Ev,
                            __ZN11libmatroska23KaxTrickTrackSegmentUID10ClassInfosE,
                            __ZN11libmatroska23KaxTrickTrackSegmentUIDC1Ev,
                            __ZN11libmatroska23KaxTrickTrackSegmentUIDC2Ev,
                            __ZN11libmatroska23KaxVideoColourPrimaries10ClassInfosE,
                            __ZN11libmatroska23KaxVideoColourPrimariesC1Ev,
                            __ZN11libmatroska23KaxVideoColourPrimariesC2Ev,
                            __ZN11libmatroska23KaxVideoPixelCropBottom10ClassInfosE,
                            __ZN11libmatroska23KaxVideoPixelCropBottomC1Ev,
                            __ZN11libmatroska23KaxVideoPixelCropBottomC2Ev,
                            __ZN11libmatroska24KaxAESSettingsCipherMode10ClassInfosE,
                            __ZN11libmatroska24KaxAESSettingsCipherModeC1Ev,
                            __ZN11libmatroska24KaxAESSettingsCipherModeC2Ev,
                            __ZN11libmatroska24KaxChapterProcessCodecID10ClassInfosE,
                            __ZN11libmatroska24KaxChapterProcessCodecIDC1Ev,
                            __ZN11libmatroska24KaxChapterProcessCodecIDC2Ev,
                            __ZN11libmatroska24KaxChapterProcessCommand10ClassInfosE,
                            __ZN11libmatroska24KaxChapterProcessCommandC1Ev,
                            __ZN11libmatroska24KaxChapterProcessCommandC2Ev,
                            __ZN11libmatroska24KaxChapterProcessPrivate10ClassInfosE,
                            __ZN11libmatroska24KaxChapterProcessPrivateC1Ev,
                            __ZN11libmatroska24KaxChapterProcessPrivateC2Ev,
                            __ZN11libmatroska24KaxChapterTranslateCodec10ClassInfosE,
                            __ZN11libmatroska24KaxChapterTranslateCodecC1Ev,
                            __ZN11libmatroska24KaxChapterTranslateCodecC2Ev,
                            __ZN11libmatroska24KaxContentEncAESSettings10ClassInfosE,
                            __ZN11libmatroska24KaxContentEncAESSettingsC1Ev,
                            __ZN11libmatroska24KaxContentEncAESSettingsC2Ev,
                            __ZN11libmatroska24KaxTrackTranslateTrackID10ClassInfosE,
                            __ZN11libmatroska24KaxTrackTranslateTrackIDC1Ev,
                            __ZN11libmatroska24KaxTrackTranslateTrackIDC2Ev,
                            __ZN11libmatroska24KaxVideoColourMasterMeta10ClassInfosE,
                            __ZN11libmatroska24KaxVideoColourMasterMetaC1Ev,
                            __ZN11libmatroska24KaxVideoColourMasterMetaC2Ev,
                            __ZN11libmatroska25KaxVideoChromaSubsampHorz10ClassInfosE,
                            __ZN11libmatroska25KaxVideoChromaSubsampHorzC1Ev,
                            __ZN11libmatroska25KaxVideoChromaSubsampHorzC2Ev,
                            __ZN11libmatroska25KaxVideoChromaSubsampVert10ClassInfosE,
                            __ZN11libmatroska25KaxVideoChromaSubsampVertC1Ev,
                            __ZN11libmatroska25KaxVideoChromaSubsampVertC2Ev,
                            __ZN11libmatroska25KaxVideoProjectionPoseYaw10ClassInfosE,
                            __ZN11libmatroska25KaxVideoProjectionPoseYawC1Ev,
                            __ZN11libmatroska25KaxVideoProjectionPoseYawC2Ev,
                            __ZN11libmatroska25KaxVideoProjectionPrivate10ClassInfosE,
                            __ZN11libmatroska25KaxVideoProjectionPrivateC1Ev,
                            __ZN11libmatroska25KaxVideoProjectionPrivateC2Ev,
                            __ZN11libmatroska25KaxVideoWhitePointChromaX10ClassInfosE,
                            __ZN11libmatroska25KaxVideoWhitePointChromaXC1Ev,
                            __ZN11libmatroska25KaxVideoWhitePointChromaXC2Ev,
                            __ZN11libmatroska25KaxVideoWhitePointChromaY10ClassInfosE,
                            __ZN11libmatroska25KaxVideoWhitePointChromaYC1Ev,
                            __ZN11libmatroska25KaxVideoWhitePointChromaYC2Ev,
                            __ZN11libmatroska26KaxAudioOutputSamplingFreq10ClassInfosE,
                            __ZN11libmatroska26KaxAudioOutputSamplingFreqC1Ev,
                            __ZN11libmatroska26KaxAudioOutputSamplingFreqC2Ev,
                            __ZN11libmatroska26KaxVideoProjectionPoseRoll10ClassInfosE,
                            __ZN11libmatroska26KaxVideoProjectionPoseRollC1Ev,
                            __ZN11libmatroska26KaxVideoProjectionPoseRollC2Ev,
                            __ZN11libmatroska27KaxChapterSegmentEditionUID10ClassInfosE,
                            __ZN11libmatroska27KaxChapterSegmentEditionUIDC1Ev,
                            __ZN11libmatroska27KaxChapterSegmentEditionUIDC2Ev,
                            __ZN11libmatroska27KaxClusterSilentTrackNumber10ClassInfosE,
                            __ZN11libmatroska27KaxClusterSilentTrackNumberC1Ev,
                            __ZN11libmatroska27KaxClusterSilentTrackNumberC2Ev,
                            __ZN11libmatroska27KaxTrackTranslateEditionUID10ClassInfosE,
                            __ZN11libmatroska27KaxTrackTranslateEditionUIDC1Ev,
                            __ZN11libmatroska27KaxTrackTranslateEditionUIDC2Ev,
                            __ZN11libmatroska27KaxVideoProjectionPosePitch10ClassInfosE,
                            __ZN11libmatroska27KaxVideoProjectionPosePitchC1Ev,
                            __ZN11libmatroska27KaxVideoProjectionPosePitchC2Ev,
                            __ZN11libmatroska29KaxChapterTranslateEditionUID10ClassInfosE,
                            __ZN11libmatroska29KaxChapterTranslateEditionUIDC1Ev,
                            __ZN11libmatroska29KaxChapterTranslateEditionUIDC2Ev,
                            __ZN11libmatroska29KaxTrickMasterTrackSegmentUID10ClassInfosE,
                            __ZN11libmatroska29KaxTrickMasterTrackSegmentUIDC1Ev,
                            __ZN11libmatroska29KaxTrickMasterTrackSegmentUIDC2Ev,
                            __ZN11libmatroska31KaxVideoColourTransferCharacter10ClassInfosE,
                            __ZN11libmatroska31KaxVideoColourTransferCharacterC1Ev,
                            __ZN11libmatroska31KaxVideoColourTransferCharacterC2Ev,
                            __ZN11libmatroska35KaxTrackDefaultDecodedFieldDuration10ClassInfosE,
                            __ZN11libmatroska35KaxTrackDefaultDecodedFieldDurationC1Ev,
                            __ZN11libmatroska35KaxTrackDefaultDecodedFieldDurationC2Ev,
                            __ZN11libmatroska6KaxTag10ClassInfosE,
                            __ZN11libmatroska6KaxTagC1Ev,
                            __ZN11libmatroska6KaxTagC2Ev,
                            __ZN11libmatroska7KaxCues10ClassInfosE,
                            __ZN11libmatroska7KaxCues11PositionSetERKNS_12KaxBlockBlobE,
                            __ZN11libmatroska7KaxCues11PositionSetERKNS_13KaxBlockGroupE,
                            __ZN11libmatroska7KaxCues12AddBlockBlobERKNS_12KaxBlockBlobE,
                            __ZN11libmatroska7KaxCuesC1Ev,
                            __ZN11libmatroska7KaxCuesC2Ev,
                            __ZN11libmatroska7KaxCuesD0Ev,
                            __ZN11libmatroska7KaxCuesD1Ev,
                            __ZN11libmatroska7KaxCuesD2Ev,
                            __ZN11libmatroska7KaxInfo10ClassInfosE,
                            __ZN11libmatroska7KaxInfoC1Ev,
                            __ZN11libmatroska7KaxInfoC2Ev,
                            __ZN11libmatroska7KaxSeek10ClassInfosE,
                            __ZN11libmatroska7KaxSeekC1Ev,
                            __ZN11libmatroska7KaxSeekC2Ev,
                            __ZN11libmatroska7KaxTags10ClassInfosE,
                            __ZN11libmatroska7KaxTagsC1Ev,
                            __ZN11libmatroska7KaxTagsC2Ev,
                            __ZN11libmatroska8KaxBlock10ClassInfosE,
                            __ZN11libmatroska8KaxTitle10ClassInfosE,
                            __ZN11libmatroska8KaxTitleC1Ev,
                            __ZN11libmatroska8KaxTitleC2Ev,
                            __ZN11libmatroska9KaxSeekID10ClassInfosE,
                            __ZN11libmatroska9KaxSeekIDC1Ev,
                            __ZN11libmatroska9KaxSeekIDC2Ev,
                            __ZN11libmatroska9KaxSlices10ClassInfosE,
                            __ZN11libmatroska9KaxSlicesC1Ev,
                            __ZN11libmatroska9KaxSlicesC2Ev,
                            __ZN11libmatroska9KaxTracks10ClassInfosE,
                            __ZN11libmatroska9KaxTracksC1Ev,
                            __ZN11libmatroska9KaxTracksC2Ev,
                            __ZN12AudioRTPSinkC1ER16UsageEnvironmentP9GroupsockhjPKcj,
                            __ZN12AudioRTPSinkC2ER16UsageEnvironmentP9GroupsockhjPKcj,
                            __ZN12AudioRTPSinkD0Ev, __ZN12AudioRTPSinkD1Ev,
                            __ZN12AudioRTPSinkD2Ev,
                            __ZN12BasicUDPSink15continuePlayingEv,
                            __ZN12BasicUDPSink16continuePlaying1Ev,
                            __ZN12BasicUDPSink17afterGettingFrameEPvjj7timevalj,
                            __ZN12BasicUDPSink18afterGettingFrame1Ejjj,
                            __ZN12BasicUDPSink8sendNextEPv,
                            __ZN12BasicUDPSink9createNewER16UsageEnvironmentP9Groupsockj,
                            __ZN12BasicUDPSinkC1ER16UsageEnvironmentP9Groupsockj,
                            __ZN12BasicUDPSinkC2ER16UsageEnvironmentP9Groupsockj,
                            __ZN12BasicUDPSinkD0Ev, __ZN12BasicUDPSinkD1Ev,
                            __ZN12BasicUDPSinkD2Ev,
                            __ZN12FramedFilter17detachInputSourceEv,
                            __ZN12FramedFilter19doStopGettingFramesEv,
                            __ZN12FramedFilterC2ER16UsageEnvironmentP12FramedSource,
                            __ZN12FramedFilterD0Ev, __ZN12FramedFilterD1Ev,
                            __ZN12FramedFilterD2Ev,
                            __ZN12FramedSource12afterGettingEPS_,
                            __ZN12FramedSource12getNextFrameEPhjPFvPvjj7timevaljES1_PFvS1_ES1_,
                            __ZN12FramedSource12lookupByNameER16UsageEnvironmentPKcRPS_,
                            __ZN12FramedSource13handleClosureEPv,
                            __ZN12FramedSource13handleClosureEv,
                            __ZN12FramedSource17stopGettingFramesEv,
                            __ZN12FramedSource19doStopGettingFramesEv,
                            __ZN12FramedSourceC2ER16UsageEnvironment,
                            __ZN12FramedSourceD0Ev, __ZN12FramedSourceD1Ev,
                            __ZN12FramedSourceD2Ev, __ZN12InterleavingC1EjPKh,
                            __ZN12InterleavingC2EjPKh, __ZN12InterleavingD0Ev,
                            __ZN12InterleavingD1Ev, __ZN12InterleavingD2Ev,
                            __ZN12MediaSession12lookupByNameER16UsageEnvironmentPKcRPS_,
                            __ZN12MediaSession12parseSDPLineEPKcRS1_,
                            __ZN12MediaSession14parseSDPLine_cEPKc,
                            __ZN12MediaSession14parseSDPLine_iEPKc,
                            __ZN12MediaSession14parseSDPLine_sEPKc,
                            __ZN12MediaSession17initializeWithSDPEPKc,
                            __ZN12MediaSession19initiateByMediaTypeEPKcRP15MediaSubsessioni,
                            __ZN12MediaSession19lookupPayloadFormatEhRjS0_,
                            __ZN12MediaSession22parseSDPAttribute_typeEPKc,
                            __ZN12MediaSession23parseSDPAttribute_rangeEPKc,
                            __ZN12MediaSession24createNewMediaSubsessionEv,
                            __ZN12MediaSession25parseSDPAttribute_controlEPKc,
                            __ZN12MediaSession26guessRTPTimestampFrequencyEPKcS1_,
                            __ZN12MediaSession31parseSDPAttribute_source_filterEPKc,
                            __ZN12MediaSession9createNewER16UsageEnvironmentPKc,
                            __ZN12MediaSessionC1ER16UsageEnvironment,
                            __ZN12MediaSessionC2ER16UsageEnvironment,
                            __ZN12MediaSessionD0Ev, __ZN12MediaSessionD1Ev,
                            __ZN12MediaSessionD2Ev,
                            __ZN12NetInterface23DefaultUsageEnvironmentE,
                            __ZN12NetInterfaceC1Ev, __ZN12NetInterfaceC2Ev,
                            __ZN12NetInterfaceD0Ev, __ZN12NetInterfaceD1Ev,
                            __ZN12NetInterfaceD2Ev,
                            __ZN12OutputSocket10handleReadEPhjRjR11sockaddr_in,
                            __ZN12OutputSocket5writeEjthPhj,
                            __ZN12OutputSocketC1ER16UsageEnvironment,
                            __ZN12OutputSocketC1ER16UsageEnvironment4Port,
                            __ZN12OutputSocketC2ER16UsageEnvironment,
                            __ZN12OutputSocketC2ER16UsageEnvironment4Port,
                            __ZN12OutputSocketD0Ev, __ZN12OutputSocketD1Ev,
                            __ZN12OutputSocketD2Ev,
                            __ZN12RTCPInstance10removeSSRCEjh,
                            __ZN12RTCPInstance10rescheduleEd,
                            __ZN12RTCPInstance10sendReportEv,
                            __ZN12RTCPInstance12checkNewSSRCEv,
                            __ZN12RTCPInstance12injectReportEPKhjRK11sockaddr_in,
                            __ZN12RTCPInstance12lookupByNameER16UsageEnvironmentPKcRPS_,
                            __ZN12RTCPInstance12setRRHandlerEPFvPvES0_,
                            __ZN12RTCPInstance12setSRHandlerEPFvPvES0_,
                            __ZN12RTCPInstance13sendAppPacketEhPKcPhj,
                            __ZN12RTCPInstance13setAppHandlerEPFvPvhjPhjES0_,
                            __ZN12RTCPInstance13setByeHandlerEPFvPvES0_h,
                            __ZN12RTCPInstance14noteArrivingRRERK11sockaddr_inih,
                            __ZN12RTCPInstance15addStreamSocketEih,
                            __ZN12RTCPInstance15sendBuiltPacketEv,
                            __ZN12RTCPInstance15setStreamSocketEih,
                            __ZN12RTCPInstance18enqueueReportBlockEP17RTPReceptionStats,
                            __ZN12RTCPInstance20setSpecificRRHandlerEj4PortPFvPvES1_,
                            __ZN12RTCPInstance21incomingReportHandlerEPS_i,
                            __ZN12RTCPInstance21processIncomingReportEjRK11sockaddr_inih,
                            __ZN12RTCPInstance22incomingReportHandler1Ev,
                            __ZN12RTCPInstance22removeLastReceivedSSRCEv,
                            __ZN12RTCPInstance22unsetSpecificRRHandlerEj4Port,
                            __ZN12RTCPInstance25enqueueCommonReportPrefixEhjj,
                            __ZN12RTCPInstance25enqueueCommonReportSuffixEv,
                            __ZN12RTCPInstance5addRREv,
                            __ZN12RTCPInstance5addSREv,
                            __ZN12RTCPInstance6addBYEEv,
                            __ZN12RTCPInstance7addSDESEv,
                            __ZN12RTCPInstance7sendBYEEv,
                            __ZN12RTCPInstance8onExpireEPS_,
                            __ZN12RTCPInstance8scheduleEd,
                            __ZN12RTCPInstance9addReportEh,
                            __ZN12RTCPInstance9createNewER16UsageEnvironmentP9GroupsockjPKhP7RTPSinkP9RTPSourceh,
                            __ZN12RTCPInstance9onExpire1Ev,
                            __ZN12RTCPInstance9onReceiveEiij,
                            __ZN12RTCPInstanceC1ER16UsageEnvironmentP9GroupsockjPKhP7RTPSinkP9RTPSourceh,
                            __ZN12RTCPInstanceC2ER16UsageEnvironmentP9GroupsockjPKhP7RTPSinkP9RTPSourceh,
                            __ZN12RTCPInstanceD0Ev, __ZN12RTCPInstanceD1Ev,
                            __ZN12RTCPInstanceD2Ev,
                            __ZN12RTPInterface10handleReadEPhjRjR11sockaddr_inRiRhS5_,
                            __ZN12RTPInterface10sendPacketEPhj,
                            __ZN12RTPInterface15addStreamSocketEih,
                            __ZN12RTPInterface15sendDataOverTCPEiPKhjh,
                            __ZN12RTPInterface15setStreamSocketEih,
                            __ZN12RTPInterface18removeStreamSocketEih,
                            __ZN12RTPInterface18stopNetworkReadingEv,
                            __ZN12RTPInterface19startNetworkReadingEPFvPviE,
                            __ZN12RTPInterface26sendRTPorRTCPPacketOverTCPEPhjih,
                            __ZN12RTPInterface38setServerRequestAlternativeByteHandlerER16UsageEnvironmentiPFvPvhES2_,
                            __ZN12RTPInterface40clearServerRequestAlternativeByteHandlerER16UsageEnvironmenti,
                            __ZN12RTPInterfaceC1EP6MediumP9Groupsock,
                            __ZN12RTPInterfaceC2EP6MediumP9Groupsock,
                            __ZN12RTPInterfaceD0Ev, __ZN12RTPInterfaceD1Ev,
                            __ZN12RTPInterfaceD2Ev, __ZN12SDPAttributeC1EPKch,
                            __ZN12SDPAttributeC2EPKch, __ZN12SDPAttributeD0Ev,
                            __ZN12SDPAttributeD1Ev, __ZN12SDPAttributeD2Ev,
                            __ZN12SegmentQueue17enqueueNewSegmentEP12FramedSourceS1_,
                            __ZN12SegmentQueue20sqAfterGettingCommonER7Segmentj,
                            __ZN12SegmentQueue21insertDummyBeforeTailEj,
                            __ZN12SegmentQueue21sqAfterGettingSegmentEPvjj7timevalj,
                            __ZN12SegmentQueue7dequeueEv,
                            __ZN12StreamParser10flushInputEv,
                            __ZN12StreamParser14onInputClosureEPv,
                            __ZN12StreamParser15onInputClosure1Ev,
                            __ZN12StreamParser15saveParserStateEv,
                            __ZN12StreamParser17afterGettingBytesEPvjj7timevalj,
                            __ZN12StreamParser17ensureValidBytes1Ej,
                            __ZN12StreamParser18afterGettingBytes1Ej7timeval,
                            __ZN12StreamParser23restoreSavedParserStateEv,
                            __ZN12StreamParser7getBitsEj,
                            __ZN12StreamParser8skipBitsEj,
                            __ZN12StreamParserC1EP12FramedSourcePFvPvES2_PFvS2_Phj7timevalES2_,
                            __ZN12StreamParserC2EP12FramedSourcePFvPvES2_PFvS2_Phj7timevalES2_,
                            __ZN12StreamParserD0Ev, __ZN12StreamParserD1Ev,
                            __ZN12StreamParserD2Ev,
                            __ZN12VideoRTPSinkC1ER16UsageEnvironmentP9GroupsockhjPKc,
                            __ZN12VideoRTPSinkC2ER16UsageEnvironmentP9GroupsockhjPKc,
                            __ZN12VideoRTPSinkD0Ev, __ZN12VideoRTPSinkD1Ev,
                            __ZN12VideoRTPSinkD2Ev,
                            __ZN13ADUdescriptor18generateDescriptorERPhj,
                            __ZN13ADUdescriptor21getRemainingFrameSizeERPh,
                            __ZN13ADUdescriptor25generateTwoByteDescriptorERPhj,
                            __ZN13AddressString4initEj,
                            __ZN13AddressStringC1ERK11sockaddr_in,
                            __ZN13AddressStringC1ERK7in_addr,
                            __ZN13AddressStringC1Ej,
                            __ZN13AddressStringC2ERK11sockaddr_in,
                            __ZN13AddressStringC2ERK7in_addr,
                            __ZN13AddressStringC2Ej, __ZN13AddressStringD0Ev,
                            __ZN13AddressStringD1Ev, __ZN13AddressStringD2Ev,
                            __ZN13Authenticator16setRealmAndNonceEPKcS1_,
                            __ZN13Authenticator18resetRealmAndNonceEv,
                            __ZN13Authenticator19assignRealmAndNonceEPKcS1_,
                            __ZN13Authenticator22setRealmAndRandomNonceEPKc,
                            __ZN13Authenticator22setUsernameAndPasswordEPKcS1_h,
                            __ZN13Authenticator24resetUsernameAndPasswordEv,
                            __ZN13Authenticator25assignUsernameAndPasswordEPKcS1_h,
                            __ZN13Authenticator5resetEv,
                            __ZN13Authenticator6assignEPKcS1_S1_S1_h,
                            __ZN13AuthenticatorC1EPKcS1_h,
                            __ZN13AuthenticatorC1ERKS_, __ZN13AuthenticatorC1Ev,
                            __ZN13AuthenticatorC2EPKcS1_h,
                            __ZN13AuthenticatorC2ERKS_, __ZN13AuthenticatorC2Ev,
                            __ZN13AuthenticatorD0Ev, __ZN13AuthenticatorD1Ev,
                            __ZN13AuthenticatorD2Ev, __ZN13AuthenticatoraSERKS_,
                            __ZN13AuthenticatorltEPKS_,
                            __ZN13MP3ADURTPSink22doSpecialFrameHandlingEjPhj7timevalj,
                            __ZN13MP3ADURTPSink9createNewER16UsageEnvironmentP9Groupsockh,
                            __ZN13MP3ADURTPSinkC1ER16UsageEnvironmentP9Groupsockh,
                            __ZN13MP3ADURTPSinkC2ER16UsageEnvironmentP9Groupsockh,
                            __ZN13MP3ADURTPSinkD0Ev, __ZN13MP3ADURTPSinkD1Ev,
                            __ZN13MP3ADURTPSinkD2Ev,
                            __ZN13SimpleRTPSink22doSpecialFrameHandlingEjPhj7timevalj,
                            __ZN13SimpleRTPSink9createNewER16UsageEnvironmentP9GroupsockhjPKcS5_jhh,
                            __ZN13SimpleRTPSinkC1ER16UsageEnvironmentP9GroupsockhjPKcS5_jhh,
                            __ZN13SimpleRTPSinkC2ER16UsageEnvironmentP9GroupsockhjPKcS5_jhh,
                            __ZN13SimpleRTPSinkD0Ev, __ZN13SimpleRTPSinkD1Ev,
                            __ZN13SimpleRTPSinkD2Ev,
                            __ZN13TaskScheduler13internalErrorEv,
                            __ZN13TaskScheduler21rescheduleDelayedTaskERPvxPFvS0_ES0_,
                            __ZN13TaskSchedulerC2Ev, __ZN13TaskSchedulerD0Ev,
                            __ZN13TaskSchedulerD1Ev, __ZN13TaskSchedulerD2Ev,
                            __ZN14AMRAudioSourceC2ER16UsageEnvironmenthj,
                            __ZN14AMRAudioSourceD0Ev, __ZN14AMRAudioSourceD1Ev,
                            __ZN14AMRAudioSourceD2Ev,
                            __ZN14BasicHashTable11deleteEntryEjPNS_10TableEntryE,
                            __ZN14BasicHashTable14insertNewEntryEjPKc,
                            __ZN14BasicHashTable3AddEPKcPv,
                            __ZN14BasicHashTable6RemoveEPKc,
                            __ZN14BasicHashTable7rebuildEv,
                            __ZN14BasicHashTable8Iterator4nextERPKc,
                            __ZN14BasicHashTable8IteratorC1ERKS_,
                            __ZN14BasicHashTable8IteratorC2ERKS_,
                            __ZN14BasicHashTable9assignKeyEPNS_10TableEntryEPKc,
                            __ZN14BasicHashTable9deleteKeyEPNS_10TableEntryE,
                            __ZN14BasicHashTableC1Ei, __ZN14BasicHashTableC2Ei,
                            __ZN14BasicHashTableD0Ev, __ZN14BasicHashTableD1Ev,
                            __ZN14BasicHashTableD2Ev,
                            __ZN14BasicUDPSource14doGetNextFrameEv,
                            __ZN14BasicUDPSource19doStopGettingFramesEv,
                            __ZN14BasicUDPSource21incomingPacketHandlerEPS_i,
                            __ZN14BasicUDPSource22incomingPacketHandler1Ev,
                            __ZN14BasicUDPSource9createNewER16UsageEnvironmentP9Groupsock,
                            __ZN14BasicUDPSourceC1ER16UsageEnvironmentP9Groupsock,
                            __ZN14BasicUDPSourceC2ER16UsageEnvironmentP9Groupsock,
                            __ZN14BasicUDPSourceD0Ev, __ZN14BasicUDPSourceD1Ev,
                            __ZN14BasicUDPSourceD2Ev,
                            __ZN14BufferedPacket10appendDataEPhj,
                            __ZN14BufferedPacket10fillInDataER12RTPInterfaceR11sockaddr_inRh,
                            __ZN14BufferedPacket13removePaddingEj,
                            __ZN14BufferedPacket16assignMiscParamsEtj7timevalhhS0_,
                            __ZN14BufferedPacket21nextEnclosedFrameSizeERPhj,
                            __ZN14BufferedPacket30getNextEnclosedFrameParametersERPhjRjS2_,
                            __ZN14BufferedPacket3useEPhjRjS1_RtS1_R7timevalRhS5_,
                            __ZN14BufferedPacket4skipEj,
                            __ZN14BufferedPacket5resetEv,
                            __ZN14BufferedPacketC1Ev, __ZN14BufferedPacketC2Ev,
                            __ZN14BufferedPacketD0Ev, __ZN14BufferedPacketD1Ev,
                            __ZN14BufferedPacketD2Ev,
                            __ZN14CAmbisonicBase15GetChannelCountEv,
                            __ZN14CAmbisonicBase8GetOrderEv,
                            __ZN14CAmbisonicBase9ConfigureEjbj,
                            __ZN14CAmbisonicBase9GetHeightEv,
                            __ZN14CAmbisonicBaseC2Ev,
                            __ZN14DVVideoRTPSink10auxSDPLineEv,
                            __ZN14DVVideoRTPSink20auxSDPLineFromFramerEP19DVVideoStreamFramer,
                            __ZN14DVVideoRTPSink22doSpecialFrameHandlingEjPhj7timevalj,
                            __ZN14DVVideoRTPSink24sourceIsCompatibleWithUsER11MediaSource,
                            __ZN14DVVideoRTPSink9createNewER16UsageEnvironmentP9Groupsockh,
                            __ZN14DVVideoRTPSinkC1ER16UsageEnvironmentP9Groupsockh,
                            __ZN14DVVideoRTPSinkC2ER16UsageEnvironmentP9Groupsockh,
                            __ZN14DVVideoRTPSinkD0Ev, __ZN14DVVideoRTPSinkD1Ev,
                            __ZN14DVVideoRTPSinkD2Ev,
                            __ZN14MP3FrameParams11getSideInfoER11MP3SideInfo,
                            __ZN14MP3FrameParams19computeSideInfoSizeEv,
                            __ZN14MP3FrameParams19setParamsFromHeaderEv,
                            __ZN14MP3FrameParamsC1Ev, __ZN14MP3FrameParamsC2Ev,
                            __ZN14MP3FrameParamsD1Ev, __ZN14MP3FrameParamsD2Ev,
                            __ZN14NetAddressList5cleanEv,
                            __ZN14NetAddressList6assignEjPP10NetAddress,
                            __ZN14NetAddressList8Iterator11nextAddressEv,
                            __ZN14NetAddressList8IteratorC1ERKS_,
                            __ZN14NetAddressList8IteratorC2ERKS_,
                            __ZN14NetAddressListC1EPKc,
                            __ZN14NetAddressListC1ERKS_,
                            __ZN14NetAddressListC2EPKc,
                            __ZN14NetAddressListC2ERKS_,
                            __ZN14NetAddressListD0Ev, __ZN14NetAddressListD1Ev,
                            __ZN14NetAddressListD2Ev,
                            __ZN14NetAddressListaSERKS_,
                            __ZN14T140IdleFilter14doGetNextFrameEv,
                            __ZN14T140IdleFilter15onSourceClosureEPv,
                            __ZN14T140IdleFilter15onSourceClosureEv,
                            __ZN14T140IdleFilter17afterGettingFrameEPvjj7timevalj,
                            __ZN14T140IdleFilter17afterGettingFrameEjj7timevalj,
                            __ZN14T140IdleFilter17deliverEmptyFrameEv,
                            __ZN14T140IdleFilter17deliverFromBufferEv,
                            __ZN14T140IdleFilter17handleIdleTimeoutEPv,
                            __ZN14T140IdleFilter17handleIdleTimeoutEv,
                            __ZN14T140IdleFilter19doStopGettingFramesEv,
                            __ZN14T140IdleFilterC1ER16UsageEnvironmentP12FramedSource,
                            __ZN14T140IdleFilterC2ER16UsageEnvironmentP12FramedSource,
                            __ZN14T140IdleFilterD0Ev, __ZN14T140IdleFilterD1Ev,
                            __ZN14T140IdleFilterD2Ev,
                            __ZN15AC3AudioRTPSink22doSpecialFrameHandlingEjPhj7timevalj,
                            __ZN15AC3AudioRTPSink9createNewER16UsageEnvironmentP9Groupsockhj,
                            __ZN15AC3AudioRTPSinkC1ER16UsageEnvironmentP9Groupsockhj,
                            __ZN15AC3AudioRTPSinkC2ER16UsageEnvironmentP9Groupsockhj,
                            __ZN15AC3AudioRTPSinkD0Ev, __ZN15AC3AudioRTPSinkD1Ev,
                            __ZN15AC3AudioRTPSinkD2Ev,
                            __ZN15DelayQueueEntry12tokenCounterE,
                            __ZN15DelayQueueEntry13handleTimeoutEv,
                            __ZN15DelayQueueEntryC1E13DelayInterval,
                            __ZN15DelayQueueEntryC2E13DelayInterval,
                            __ZN15DelayQueueEntryD0Ev, __ZN15DelayQueueEntryD1Ev,
                            __ZN15DelayQueueEntryD2Ev,
                            __ZN15GSMAudioRTPSink9createNewER16UsageEnvironmentP9Groupsock,
                            __ZN15GSMAudioRTPSinkC1ER16UsageEnvironmentP9Groupsock,
                            __ZN15GSMAudioRTPSinkC2ER16UsageEnvironmentP9Groupsock,
                            __ZN15GSMAudioRTPSinkD0Ev, __ZN15GSMAudioRTPSinkD1Ev,
                            __ZN15GSMAudioRTPSinkD2Ev,
                            __ZN15HandlerIterator4nextEv,
                            __ZN15HandlerIterator5resetEv,
                            __ZN15HandlerIteratorC1ER10HandlerSet,
                            __ZN15HandlerIteratorC2ER10HandlerSet,
                            __ZN15HandlerIteratorD0Ev, __ZN15HandlerIteratorD1Ev,
                            __ZN15HandlerIteratorD2Ev,
                            __ZN15MP3ADURTPSource9createNewER16UsageEnvironmentP9Groupsockhj,
                            __ZN15MP3ADURTPSourceC1ER16UsageEnvironmentP9Groupsockhj,
                            __ZN15MP3ADURTPSourceC2ER16UsageEnvironmentP9Groupsockhj,
                            __ZN15MP3ADURTPSourceD0Ev, __ZN15MP3ADURTPSourceD1Ev,
                            __ZN15MP3ADURTPSourceD2Ev,
                            __ZN15MediaSubsession10deInitiateEv,
                            __ZN15MediaSubsession12setAttributeEPKcS1_h,
                            __ZN15MediaSubsession12setSessionIdEPKc,
                            __ZN15MediaSubsession14parseSDPLine_bEPKc,
                            __ZN15MediaSubsession14parseSDPLine_cEPKc,
                            __ZN15MediaSubsession15setDestinationsEj,
                            __ZN15MediaSubsession16setClientPortNumEt,
                            __ZN15MediaSubsession17getNormalPlayTimeERK7timeval,
                            __ZN15MediaSubsession19createSourceObjectsEi,
                            __ZN15MediaSubsession22parseSDPAttribute_fmtpEPKc,
                            __ZN15MediaSubsession23parseSDPAttribute_rangeEPKc,
                            __ZN15MediaSubsession24parseSDPAttribute_rtpmapEPKc,
                            __ZN15MediaSubsession25parseSDPAttribute_controlEPKc,
                            __ZN15MediaSubsession25parseSDPAttribute_rtcpmuxEPKc,
                            __ZN15MediaSubsession27parseSDPAttribute_framerateEPKc,
                            __ZN15MediaSubsession30parseSDPAttribute_x_dimensionsEPKc,
                            __ZN15MediaSubsession31parseSDPAttribute_source_filterEPKc,
                            __ZN15MediaSubsession8initiateEi,
                            __ZN15MediaSubsession9addFilterEP12FramedFilter,
                            __ZN15MediaSubsessionC1ER12MediaSession,
                            __ZN15MediaSubsessionC2ER12MediaSession,
                            __ZN15MediaSubsessionD0Ev, __ZN15MediaSubsessionD1Ev,
                            __ZN15MediaSubsessionD2Ev,
                            __ZN15OutPacketBuffer10insertWordEjj,
                            __ZN15OutPacketBuffer11enqueueWordEj,
                            __ZN15OutPacketBuffer11extractWordEj,
                            __ZN15OutPacketBuffer15setOverflowDataEjjRK7timevalj,
                            __ZN15OutPacketBuffer15useOverflowDataEv,
                            __ZN15OutPacketBuffer16resetPacketStartEv,
                            __ZN15OutPacketBuffer17adjustPacketStartEj,
                            __ZN15OutPacketBuffer6insertEPKhjj,
                            __ZN15OutPacketBuffer7enqueueEPKhj,
                            __ZN15OutPacketBuffer7extractEPhjj,
                            __ZN15OutPacketBuffer7maxSizeE,
                            __ZN15OutPacketBuffer9skipBytesEj,
                            __ZN15OutPacketBufferC1Ejjj,
                            __ZN15OutPacketBufferC2Ejjj,
                            __ZN15OutPacketBufferD1Ev, __ZN15OutPacketBufferD2Ev,
                            __ZN15ProxyRTSPClient12sendDESCRIBEEPv,
                            __ZN15ProxyRTSPClient17continueAfterPLAYEi,
                            __ZN15ProxyRTSPClient17subsessionTimeoutEPv,
                            __ZN15ProxyRTSPClient18continueAfterSETUPEi,
                            __ZN15ProxyRTSPClient19sendLivenessCommandEPv,
                            __ZN15ProxyRTSPClient21continueAfterDESCRIBEEPKc,
                            __ZN15ProxyRTSPClient23handleSubsessionTimeoutEv,
                            __ZN15ProxyRTSPClient23scheduleDESCRIBECommandEv,
                            __ZN15ProxyRTSPClient23scheduleLivenessCommandEv,
                            __ZN15ProxyRTSPClient28continueAfterLivenessCommandEih,
                            __ZN15ProxyRTSPClient5resetEv,
                            __ZN15ProxyRTSPClientC1ER23ProxyServerMediaSessionPKcS3_S3_tii,
                            __ZN15ProxyRTSPClientC2ER23ProxyServerMediaSessionPKcS3_S3_tii,
                            __ZN15ProxyRTSPClientD0Ev, __ZN15ProxyRTSPClientD1Ev,
                            __ZN15ProxyRTSPClientD2Ev,
                            __ZN15RawAMRRTPSource20processSpecialHeaderEP14BufferedPacketRj,
                            __ZN15RawAMRRTPSource28hasBeenSynchronizedUsingRTCPEv,
                            __ZN15RawAMRRTPSource9createNewER16UsageEnvironmentP9Groupsockhhhhh,
                            __ZN15RawAMRRTPSourceC1ER16UsageEnvironmentP9Groupsockhhhhh,
                            __ZN15RawAMRRTPSourceC2ER16UsageEnvironmentP9Groupsockhhhhh,
                            __ZN15RawAMRRTPSourceD0Ev, __ZN15RawAMRRTPSourceD1Ev,
                            __ZN15RawAMRRTPSourceD2Ev,
                            __ZN15SimpleRTPSource20processSpecialHeaderEP14BufferedPacketRj,
                            __ZN15SimpleRTPSource9createNewER16UsageEnvironmentP9GroupsockhjPKcjh,
                            __ZN15SimpleRTPSourceC1ER16UsageEnvironmentP9GroupsockhjPKcjh,
                            __ZN15SimpleRTPSourceC2ER16UsageEnvironmentP9GroupsockhjPKcjh,
                            __ZN15SimpleRTPSourceD0Ev, __ZN15SimpleRTPSourceD1Ev,
                            __ZN15SimpleRTPSourceD2Ev,
                            __ZN15T140TextRTPSink15continuePlayingEv,
                            __ZN15T140TextRTPSink22doSpecialFrameHandlingEjPhj7timevalj,
                            __ZN15T140TextRTPSink9createNewER16UsageEnvironmentP9Groupsockh,
                            __ZN15T140TextRTPSinkC1ER16UsageEnvironmentP9Groupsockh,
                            __ZN15T140TextRTPSinkC2ER16UsageEnvironmentP9Groupsockh,
                            __ZN15T140TextRTPSinkD0Ev, __ZN15T140TextRTPSinkD1Ev,
                            __ZN15T140TextRTPSinkD2Ev,
                            __ZN15VP8VideoRTPSink22doSpecialFrameHandlingEjPhj7timevalj,
                            __ZN15VP8VideoRTPSink9createNewER16UsageEnvironmentP9Groupsockh,
                            __ZN15VP8VideoRTPSinkC1ER16UsageEnvironmentP9Groupsockh,
                            __ZN15VP8VideoRTPSinkC2ER16UsageEnvironmentP9Groupsockh,
                            __ZN15VP8VideoRTPSinkD0Ev, __ZN15VP8VideoRTPSinkD1Ev,
                            __ZN15VP8VideoRTPSinkD2Ev,
                            __ZN15VP9VideoRTPSink22doSpecialFrameHandlingEjPhj7timevalj,
                            __ZN15VP9VideoRTPSink9createNewER16UsageEnvironmentP9Groupsockh,
                            __ZN15VP9VideoRTPSinkC1ER16UsageEnvironmentP9Groupsockh,
                            __ZN15VP9VideoRTPSinkC2ER16UsageEnvironmentP9Groupsockh,
                            __ZN15VP9VideoRTPSinkD0Ev, __ZN15VP9VideoRTPSinkD1Ev,
                            __ZN15VP9VideoRTPSinkD2Ev,
                            __ZN15tcpStreamRecordC1EihPS_,
                            __ZN15tcpStreamRecordC2EihPS_,
                            __ZN15tcpStreamRecordD0Ev, __ZN15tcpStreamRecordD1Ev,
                            __ZN15tcpStreamRecordD2Ev,
                            __ZN16ADUFromMP3Source10resetInputEv,
                            __ZN16ADUFromMP3Source14doGetNextFrameEv,
                            __ZN16ADUFromMP3Source14setScaleFactorEi,
                            __ZN16ADUFromMP3Source15doGetNextFrame1Ev,
                            __ZN16ADUFromMP3Source9createNewER16UsageEnvironmentP12FramedSourceh,
                            __ZN16ADUFromMP3SourceC1ER16UsageEnvironmentP12FramedSourceh,
                            __ZN16ADUFromMP3SourceC2ER16UsageEnvironmentP12FramedSourceh,
                            __ZN16ADUFromMP3SourceD0Ev,
                            __ZN16ADUFromMP3SourceD1Ev,
                            __ZN16ADUFromMP3SourceD2Ev,
                            __ZN16AMRDeinterleaver14doGetNextFrameEv,
                            __ZN16AMRDeinterleaver17afterGettingFrameEPvjj7timevalj,
                            __ZN16AMRDeinterleaver18afterGettingFrame1Ej7timeval,
                            __ZN16AMRDeinterleaver19doStopGettingFramesEv,
                            __ZN16AMRDeinterleaver9createNewER16UsageEnvironmenthjjP15RawAMRRTPSource,
                            __ZN16AMRDeinterleaverC1ER16UsageEnvironmenthjjP15RawAMRRTPSource,
                            __ZN16AMRDeinterleaverC2ER16UsageEnvironmenthjjP15RawAMRRTPSource,
                            __ZN16AMRDeinterleaverD0Ev,
                            __ZN16AMRDeinterleaverD1Ev,
                            __ZN16AMRDeinterleaverD2Ev,
                            __ZN16CAmbisonicSource11GetPositionEv,
                            __ZN16CAmbisonicSource11SetPositionE10PolarPoint,
                            __ZN16CAmbisonicSource14GetCoefficientEj,
                            __ZN16CAmbisonicSource14GetOrderWeightEj,
                            __ZN16CAmbisonicSource14SetCoefficientEjf,
                            __ZN16CAmbisonicSource14SetOrderWeightEjf,
                            __ZN16CAmbisonicSource17SetOrderWeightAllEf,
                            __ZN16CAmbisonicSource5ResetEv,
                            __ZN16CAmbisonicSource7GetGainEv,
                            __ZN16CAmbisonicSource7RefreshEv,
                            __ZN16CAmbisonicSource7SetGainEf,
                            __ZN16CAmbisonicSource9ConfigureEjbj,
                            __ZN16CAmbisonicSourceC1Ev,
                            __ZN16CAmbisonicSourceC2Ev,
                            __ZN16CAmbisonicZoomer5ResetEv,
                            __ZN16CAmbisonicZoomer7GetZoomEv,
                            __ZN16CAmbisonicZoomer7ProcessEP8CBFormatj,
                            __ZN16CAmbisonicZoomer7RefreshEv,
                            __ZN16CAmbisonicZoomer7SetZoomEf,
                            __ZN16CAmbisonicZoomer9ConfigureEjbj,
                            __ZN16CAmbisonicZoomer9factorialEj,
                            __ZN16CAmbisonicZoomerC1Ev,
                            __ZN16CAmbisonicZoomerC2Ev,
                            __ZN16DVVideoRTPSource20processSpecialHeaderEP14BufferedPacketRj,
                            __ZN16DVVideoRTPSource9createNewER16UsageEnvironmentP9Groupsockhj,
                            __ZN16DVVideoRTPSourceC1ER16UsageEnvironmentP9Groupsockhj,
                            __ZN16DVVideoRTPSourceC2ER16UsageEnvironmentP9Groupsockhj,
                            __ZN16DVVideoRTPSourceD0Ev,
                            __ZN16DVVideoRTPSourceD1Ev,
                            __ZN16DVVideoRTPSourceD2Ev,
                            __ZN16H264VideoRTPSink10auxSDPLineEv,
                            __ZN16H264VideoRTPSink24sourceIsCompatibleWithUsER11MediaSource,
                            __ZN16H264VideoRTPSink9createNewER16UsageEnvironmentP9Groupsockh,
                            __ZN16H264VideoRTPSink9createNewER16UsageEnvironmentP9GroupsockhPKc,
                            __ZN16H264VideoRTPSink9createNewER16UsageEnvironmentP9GroupsockhPKhjS5_j,
                            __ZN16H264VideoRTPSinkC1ER16UsageEnvironmentP9GroupsockhPKhjS5_j,
                            __ZN16H264VideoRTPSinkC2ER16UsageEnvironmentP9GroupsockhPKhjS5_j,
                            __ZN16H264VideoRTPSinkD0Ev,
                            __ZN16H264VideoRTPSinkD1Ev,
                            __ZN16H264VideoRTPSinkD2Ev,
                            __ZN16H265VideoRTPSink10auxSDPLineEv,
                            __ZN16H265VideoRTPSink24sourceIsCompatibleWithUsER11MediaSource,
                            __ZN16H265VideoRTPSink9createNewER16UsageEnvironmentP9Groupsockh,
                            __ZN16H265VideoRTPSink9createNewER16UsageEnvironmentP9GroupsockhPKcS5_S5_,
                            __ZN16H265VideoRTPSink9createNewER16UsageEnvironmentP9GroupsockhPKhjS5_jS5_j,
                            __ZN16H265VideoRTPSinkC1ER16UsageEnvironmentP9GroupsockhPKhjS5_jS5_j,
                            __ZN16H265VideoRTPSinkC2ER16UsageEnvironmentP9GroupsockhPKhjS5_jS5_j,
                            __ZN16H265VideoRTPSinkD0Ev,
                            __ZN16H265VideoRTPSinkD1Ev,
                            __ZN16H265VideoRTPSinkD2Ev,
                            __ZN16MP3FromADUSource14doGetNextFrameEv,
                            __ZN16MP3FromADUSource14needToGetAnADUEv,
                            __ZN16MP3FromADUSource24generateFrameFromHeadADUEv,
                            __ZN16MP3FromADUSource26insertDummyADUsIfNecessaryEv,
                            __ZN16MP3FromADUSource9createNewER16UsageEnvironmentP12FramedSourceh,
                            __ZN16MP3FromADUSourceC1ER16UsageEnvironmentP12FramedSourceh,
                            __ZN16MP3FromADUSourceC2ER16UsageEnvironmentP12FramedSourceh,
                            __ZN16MP3FromADUSourceD0Ev,
                            __ZN16MP3FromADUSourceD1Ev,
                            __ZN16MP3FromADUSourceD2Ev,
                            __ZN16MediaLookupTable15generateNewNameEPcj,
                            __ZN16MediaLookupTable6addNewEP6MediumPc,
                            __ZN16MediaLookupTable6removeEPKc,
                            __ZN16MediaLookupTable8ourMediaER16UsageEnvironment,
                            __ZN16MediaLookupTableC1ER16UsageEnvironment,
                            __ZN16MediaLookupTableC2ER16UsageEnvironment,
                            __ZN16MediaLookupTableD0Ev,
                            __ZN16MediaLookupTableD1Ev,
                            __ZN16MediaLookupTableD2Ev,
                            __ZN16SocketDescriptor14tcpReadHandlerEPS_i,
                            __ZN16SocketDescriptor15tcpReadHandler1Ei,
                            __ZN16SocketDescriptor18lookupRTPInterfaceEh,
                            __ZN16SocketDescriptor20registerRTPInterfaceEhP12RTPInterface,
                            __ZN16SocketDescriptor22deregisterRTPInterfaceEh,
                            __ZN16SocketDescriptorC1ER16UsageEnvironmenti,
                            __ZN16SocketDescriptorC2ER16UsageEnvironmenti,
                            __ZN16SocketDescriptorD0Ev,
                            __ZN16SocketDescriptorD1Ev,
                            __ZN16SocketDescriptorD2Ev,
                            __ZN16UsageEnvironment13internalErrorEv,
                            __ZN16UsageEnvironment7reclaimEv,
                            __ZN16UsageEnvironmentC2ER13TaskScheduler,
                            __ZN16UsageEnvironmentD0Ev,
                            __ZN16UsageEnvironmentD1Ev,
                            __ZN16UsageEnvironmentD2Ev,
                            __ZN17AC3AudioRTPSource20processSpecialHeaderEP14BufferedPacketRj,
                            __ZN17AC3AudioRTPSource9createNewER16UsageEnvironmentP9Groupsockhj,
                            __ZN17AC3AudioRTPSourceC1ER16UsageEnvironmentP9Groupsockhj,
                            __ZN17AC3AudioRTPSourceC2ER16UsageEnvironmentP9Groupsockhj,
                            __ZN17AC3AudioRTPSourceD0Ev,
                            __ZN17AC3AudioRTPSourceD1Ev,
                            __ZN17AC3AudioRTPSourceD2Ev,
                            __ZN17ADUBufferedPacket21nextEnclosedFrameSizeERPhj,
                            __ZN17AMRAudioRTPSource9createNewER16UsageEnvironmentP9GroupsockRP9RTPSourcehhjhjhh,
                            __ZN17AMRBufferedPacket21nextEnclosedFrameSizeERPhj,
                            __ZN17AMRBufferedPacketC1ER15RawAMRRTPSource,
                            __ZN17AMRBufferedPacketC2ER15RawAMRRTPSource,
                            __ZN17AMRBufferedPacketD0Ev,
                            __ZN17AMRBufferedPacketD1Ev,
                            __ZN17AMRBufferedPacketD2Ev,
                            __ZN17CAmbisonicDecoder11GetPositionEj,
                            __ZN17CAmbisonicDecoder11SetPositionEj10PolarPoint,
                            __ZN17CAmbisonicDecoder12SpeakerSetUpEij,
                            __ZN17CAmbisonicDecoder14GetCoefficientEjj,
                            __ZN17CAmbisonicDecoder14GetOrderWeightEjj,
                            __ZN17CAmbisonicDecoder14SetCoefficientEjjf,
                            __ZN17CAmbisonicDecoder14SetOrderWeightEjjf,
                            __ZN17CAmbisonicDecoder15GetSpeakerCountEv,
                            __ZN17CAmbisonicDecoder15GetSpeakerSetUpEv,
                            __ZN17CAmbisonicDecoder5ResetEv,
                            __ZN17CAmbisonicDecoder7ProcessEP8CBFormatjPPf,
                            __ZN17CAmbisonicDecoder7RefreshEv,
                            __ZN17CAmbisonicDecoder9ConfigureEjbij,
                            __ZN17CAmbisonicDecoderC1Ev,
                            __ZN17CAmbisonicDecoderC2Ev,
                            __ZN17CAmbisonicDecoderD0Ev,
                            __ZN17CAmbisonicDecoderD1Ev,
                            __ZN17CAmbisonicDecoderD2Ev,
                            __ZN17CAmbisonicEncoder7ProcessEPfjP8CBFormat,
                            __ZN17CAmbisonicEncoder7RefreshEv,
                            __ZN17CAmbisonicEncoder9ConfigureEjbj,
                            __ZN17CAmbisonicEncoderC1Ev,
                            __ZN17CAmbisonicEncoderC2Ev,
                            __ZN17CAmbisonicEncoderD0Ev,
                            __ZN17CAmbisonicEncoderD1Ev,
                            __ZN17CAmbisonicEncoderD2Ev,
                            __ZN17CAmbisonicSpeaker7ProcessEP8CBFormatjPf,
                            __ZN17CAmbisonicSpeaker7RefreshEv,
                            __ZN17CAmbisonicSpeaker9ConfigureEjbj,
                            __ZN17CAmbisonicSpeakerC1Ev,
                            __ZN17CAmbisonicSpeakerC2Ev,
                            __ZN17CAmbisonicSpeakerD0Ev,
                            __ZN17CAmbisonicSpeakerD1Ev,
                            __ZN17CAmbisonicSpeakerD2Ev,
                            __ZN17H264or5Fragmenter14doGetNextFrameEv,
                            __ZN17H264or5Fragmenter17afterGettingFrameEPvjj7timevalj,
                            __ZN17H264or5Fragmenter18afterGettingFrame1Ejj7timevalj,
                            __ZN17H264or5Fragmenter19doStopGettingFramesEv,
                            __ZN17H264or5Fragmenter5resetEv,
                            __ZN17H264or5FragmenterC1EiR16UsageEnvironmentP12FramedSourcejj,
                            __ZN17H264or5FragmenterC2EiR16UsageEnvironmentP12FramedSourcejj,
                            __ZN17H264or5FragmenterD0Ev,
                            __ZN17H264or5FragmenterD1Ev,
                            __ZN17H264or5FragmenterD2Ev,
                            __ZN17HandlerDescriptorC1EPS_,
                            __ZN17HandlerDescriptorC2EPS_,
                            __ZN17HandlerDescriptorD0Ev,
                            __ZN17HandlerDescriptorD1Ev,
                            __ZN17HandlerDescriptorD2Ev,
                            __ZN17MP3ADUinterleaver14doGetNextFrameEv,
                            __ZN17MP3ADUinterleaver17afterGettingFrameEj7timevalj,
                            __ZN17MP3ADUinterleaver20releaseOutgoingFrameEv,
                            __ZN17MP3ADUinterleaver9createNewER16UsageEnvironmentRK12InterleavingP12FramedSource,
                            __ZN17MP3ADUinterleaverC1ER16UsageEnvironmentRK12InterleavingP12FramedSource,
                            __ZN17MP3ADUinterleaverC2ER16UsageEnvironmentRK12InterleavingP12FramedSource,
                            __ZN17MP3ADUinterleaverD0Ev,
                            __ZN17MP3ADUinterleaverD1Ev,
                            __ZN17MP3ADUinterleaverD2Ev,
                            __ZN17RTPReceptionStats10initSeqNumEt,
                            __ZN17RTPReceptionStats14noteIncomingSREjjj,
                            __ZN17RTPReceptionStats18noteIncomingPacketEtjjhR7timevalRhj,
                            __ZN17RTPReceptionStats4initEj,
                            __ZN17RTPReceptionStats5resetEv,
                            __ZN17RTPReceptionStatsC1Ej,
                            __ZN17RTPReceptionStatsC1Ejt,
                            __ZN17RTPReceptionStatsC2Ej,
                            __ZN17RTPReceptionStatsC2Ejt,
                            __ZN17RTPReceptionStatsD0Ev,
                            __ZN17RTPReceptionStatsD1Ev,
                            __ZN17RTPReceptionStatsD2Ev,
                            __ZN17RawQCELPRTPSource20processSpecialHeaderEP14BufferedPacketRj,
                            __ZN17RawQCELPRTPSource28hasBeenSynchronizedUsingRTCPEv,
                            __ZN17RawQCELPRTPSource9createNewER16UsageEnvironmentP9Groupsockhj,
                            __ZN17RawQCELPRTPSourceC1ER16UsageEnvironmentP9Groupsockhj,
                            __ZN17RawQCELPRTPSourceC2ER16UsageEnvironmentP9Groupsockhj,
                            __ZN17RawQCELPRTPSourceD0Ev,
                            __ZN17RawQCELPRTPSourceD1Ev,
                            __ZN17RawQCELPRTPSourceD2Ev,
                            __ZN17SocketLookupTable5FetchER16UsageEnvironment4PortRh,
                            __ZN17SocketLookupTable6RemoveEPK6Socket,
                            __ZN17SocketLookupTableC2Ev,
                            __ZN17SocketLookupTableD0Ev,
                            __ZN17SocketLookupTableD1Ev,
                            __ZN17SocketLookupTableD2Ev,
                            __ZN17VP8VideoRTPSource20processSpecialHeaderEP14BufferedPacketRj,
                            __ZN17VP8VideoRTPSource9createNewER16UsageEnvironmentP9Groupsockhj,
                            __ZN17VP8VideoRTPSourceC1ER16UsageEnvironmentP9Groupsockhj,
                            __ZN17VP8VideoRTPSourceC2ER16UsageEnvironmentP9Groupsockhj,
                            __ZN17VP8VideoRTPSourceD0Ev,
                            __ZN17VP8VideoRTPSourceD1Ev,
                            __ZN17VP8VideoRTPSourceD2Ev,
                            __ZN17VP9VideoRTPSource20processSpecialHeaderEP14BufferedPacketRj,
                            __ZN17VP9VideoRTPSource9createNewER16UsageEnvironmentP9Groupsockhj,
                            __ZN17VP9VideoRTPSourceC1ER16UsageEnvironmentP9Groupsockhj,
                            __ZN17VP9VideoRTPSourceC2ER16UsageEnvironmentP9Groupsockhj,
                            __ZN17VP9VideoRTPSourceD0Ev,
                            __ZN17VP9VideoRTPSourceD1Ev,
                            __ZN17VP9VideoRTPSourceD2Ev,
                            __ZN18BasicTaskScheduler10SingleStepEj,
                            __ZN18BasicTaskScheduler17schedulerTickTaskEPv,
                            __ZN18BasicTaskScheduler17schedulerTickTaskEv,
                            __ZN18BasicTaskScheduler18moveSocketHandlingEii,
                            __ZN18BasicTaskScheduler21setBackgroundHandlingEiiPFvPviES0_,
                            __ZN18BasicTaskScheduler9createNewEj,
                            __ZN18BasicTaskSchedulerC1Ej,
                            __ZN18BasicTaskSchedulerC2Ej,
                            __ZN18BasicTaskSchedulerD0Ev,
                            __ZN18BasicTaskSchedulerD1Ev,
                            __ZN18BasicTaskSchedulerD2Ev,
                            __ZN18GenericMediaServer13ClientSession12noteLivenessEv,
                            __ZN18GenericMediaServer13ClientSession18noteClientLivenessEPS0_,
                            __ZN18GenericMediaServer13ClientSession19livenessTimeoutTaskEPS0_,
                            __ZN18GenericMediaServer13ClientSessionC1ERS_j,
                            __ZN18GenericMediaServer13ClientSessionC2ERS_j,
                            __ZN18GenericMediaServer13ClientSessionD0Ev,
                            __ZN18GenericMediaServer13ClientSessionD1Ev,
                            __ZN18GenericMediaServer13ClientSessionD2Ev,
                            __ZN18GenericMediaServer14setUpOurSocketER16UsageEnvironmentR4Port,
                            __ZN18GenericMediaServer16ClientConnection12closeSocketsEv,
                            __ZN18GenericMediaServer16ClientConnection18resetRequestBufferEv,
                            __ZN18GenericMediaServer16ClientConnection22incomingRequestHandlerEPvi,
                            __ZN18GenericMediaServer16ClientConnection22incomingRequestHandlerEv,
                            __ZN18GenericMediaServer16ClientConnectionC2ERS_i11sockaddr_in,
                            __ZN18GenericMediaServer16ClientConnectionD0Ev,
                            __ZN18GenericMediaServer16ClientConnectionD1Ev,
                            __ZN18GenericMediaServer16ClientConnectionD2Ev,
                            __ZN18GenericMediaServer19lookupClientSessionEPKc,
                            __ZN18GenericMediaServer19lookupClientSessionEj,
                            __ZN18GenericMediaServer21addServerMediaSessionEP18ServerMediaSession,
                            __ZN18GenericMediaServer24deleteServerMediaSessionEP18ServerMediaSession,
                            __ZN18GenericMediaServer24deleteServerMediaSessionEPKc,
                            __ZN18GenericMediaServer24lookupServerMediaSessionEPKch,
                            __ZN18GenericMediaServer24removeServerMediaSessionEP18ServerMediaSession,
                            __ZN18GenericMediaServer24removeServerMediaSessionEPKc,
                            __ZN18GenericMediaServer25incomingConnectionHandlerEPvi,
                            __ZN18GenericMediaServer25incomingConnectionHandlerEv,
                            __ZN18GenericMediaServer26ServerMediaSessionIterator4nextEv,
                            __ZN18GenericMediaServer26ServerMediaSessionIteratorC1ERS_,
                            __ZN18GenericMediaServer26ServerMediaSessionIteratorC2ERS_,
                            __ZN18GenericMediaServer26ServerMediaSessionIteratorD0Ev,
                            __ZN18GenericMediaServer26ServerMediaSessionIteratorD1Ev,
                            __ZN18GenericMediaServer26ServerMediaSessionIteratorD2Ev,
                            __ZN18GenericMediaServer28createNewClientSessionWithIdEv,
                            __ZN18GenericMediaServer33incomingConnectionHandlerOnSocketEi,
                            __ZN18GenericMediaServer43closeAllClientSessionsForServerMediaSessionEP18ServerMediaSession,
                            __ZN18GenericMediaServer43closeAllClientSessionsForServerMediaSessionEPKc,
                            __ZN18GenericMediaServer7cleanupEv,
                            __ZN18GenericMediaServerC2ER16UsageEnvironmenti4Portj,
                            __ZN18GenericMediaServerD0Ev,
                            __ZN18GenericMediaServerD1Ev,
                            __ZN18GenericMediaServerD2Ev,
                            __ZN18H261VideoRTPSource20processSpecialHeaderEP14BufferedPacketRj,
                            __ZN18H261VideoRTPSource9createNewER16UsageEnvironmentP9Groupsockhj,
                            __ZN18H261VideoRTPSourceC1ER16UsageEnvironmentP9Groupsockhj,
                            __ZN18H261VideoRTPSourceC2ER16UsageEnvironmentP9Groupsockhj,
                            __ZN18H261VideoRTPSourceD0Ev,
                            __ZN18H261VideoRTPSourceD1Ev,
                            __ZN18H261VideoRTPSourceD2Ev,
                            __ZN18H264BufferedPacket21nextEnclosedFrameSizeERPhj,
                            __ZN18H264BufferedPacketC1ER18H264VideoRTPSource,
                            __ZN18H264BufferedPacketC2ER18H264VideoRTPSource,
                            __ZN18H264BufferedPacketD0Ev,
                            __ZN18H264BufferedPacketD1Ev,
                            __ZN18H264BufferedPacketD2Ev,
                            __ZN18H264VideoRTPSource20processSpecialHeaderEP14BufferedPacketRj,
                            __ZN18H264VideoRTPSource9createNewER16UsageEnvironmentP9Groupsockhj,
                            __ZN18H264VideoRTPSourceC1ER16UsageEnvironmentP9Groupsockhj,
                            __ZN18H264VideoRTPSourceC2ER16UsageEnvironmentP9Groupsockhj,
                            __ZN18H264VideoRTPSourceD0Ev,
                            __ZN18H264VideoRTPSourceD1Ev,
                            __ZN18H264VideoRTPSourceD2Ev,
                            __ZN18H265BufferedPacket21nextEnclosedFrameSizeERPhj,
                            __ZN18H265BufferedPacketC1ER18H265VideoRTPSource,
                            __ZN18H265BufferedPacketC2ER18H265VideoRTPSource,
                            __ZN18H265BufferedPacketD0Ev,
                            __ZN18H265BufferedPacketD1Ev,
                            __ZN18H265BufferedPacketD2Ev,
                            __ZN18H265VideoRTPSource20computeAbsDonFromDONEt,
                            __ZN18H265VideoRTPSource20processSpecialHeaderEP14BufferedPacketRj,
                            __ZN18H265VideoRTPSource9createNewER16UsageEnvironmentP9Groupsockhhj,
                            __ZN18H265VideoRTPSourceC1ER16UsageEnvironmentP9Groupsockhhj,
                            __ZN18H265VideoRTPSourceC2ER16UsageEnvironmentP9Groupsockhhj,
                            __ZN18H265VideoRTPSourceD0Ev,
                            __ZN18H265VideoRTPSourceD1Ev,
                            __ZN18H265VideoRTPSourceD2Ev,
                            __ZN18InterleavingFrames11releaseNextEv,
                            __ZN18InterleavingFrames14setFrameParamsEhhhj7timevalj,
                            __ZN18InterleavingFrames20haveReleaseableFrameEv,
                            __ZN18InterleavingFrames22getIncomingFrameParamsEhRPhRj,
                            __ZN18InterleavingFrames23getReleasingFrameParamsEhRPhRjR7timevalS2_,
                            __ZN18InterleavingFramesC1Ej,
                            __ZN18InterleavingFramesC2Ej,
                            __ZN18InterleavingFramesD0Ev,
                            __ZN18InterleavingFramesD1Ev,
                            __ZN18InterleavingFramesD2Ev,
                            __ZN18JPEGBufferedPacket21nextEnclosedFrameSizeERPhj,
                            __ZN18JPEGBufferedPacket5resetEv,
                            __ZN18JPEGVideoRTPSource20processSpecialHeaderEP14BufferedPacketRj,
                            __ZN18JPEGVideoRTPSource9createNewER16UsageEnvironmentP9Groupsockhjjj,
                            __ZN18JPEGVideoRTPSourceC1ER16UsageEnvironmentP9Groupsockhjjj,
                            __ZN18JPEGVideoRTPSourceC2ER16UsageEnvironmentP9Groupsockhjjj,
                            __ZN18JPEGVideoRTPSourceD0Ev,
                            __ZN18JPEGVideoRTPSourceD1Ev,
                            __ZN18JPEGVideoRTPSourceD2Ev,
                            __ZN18LATMBufferedPacket21nextEnclosedFrameSizeERPhj,
                            __ZN18LATMBufferedPacketC1Eh,
                            __ZN18LATMBufferedPacketC2Eh,
                            __ZN18LATMBufferedPacketD0Ev,
                            __ZN18LATMBufferedPacketD1Ev,
                            __ZN18LATMBufferedPacketD2Ev,
                            __ZN18MultiFramedRTPSink11stopPlayingEv,
                            __ZN18MultiFramedRTPSink12setMarkerBitEv,
                            __ZN18MultiFramedRTPSink12setTimestampE7timeval,
                            __ZN18MultiFramedRTPSink14setPacketSizesEjj,
                            __ZN18MultiFramedRTPSink15continuePlayingEv,
                            __ZN18MultiFramedRTPSink15setFramePaddingEj,
                            __ZN18MultiFramedRTPSink16ourHandleClosureEPv,
                            __ZN18MultiFramedRTPSink17afterGettingFrameEPvjj7timevalj,
                            __ZN18MultiFramedRTPSink18afterGettingFrame1Ejj7timevalj,
                            __ZN18MultiFramedRTPSink18buildAndSendPacketEh,
                            __ZN18MultiFramedRTPSink20setSpecialHeaderWordEjj,
                            __ZN18MultiFramedRTPSink21sendPacketIfNecessaryEv,
                            __ZN18MultiFramedRTPSink21setSpecialHeaderBytesEPKhjj,
                            __ZN18MultiFramedRTPSink22doSpecialFrameHandlingEjPhj7timevalj,
                            __ZN18MultiFramedRTPSink26setFrameSpecificHeaderWordEjj,
                            __ZN18MultiFramedRTPSink27setFrameSpecificHeaderBytesEPKhjj,
                            __ZN18MultiFramedRTPSink8sendNextEPv,
                            __ZN18MultiFramedRTPSink9packFrameEv,
                            __ZN18MultiFramedRTPSinkC1ER16UsageEnvironmentP9GroupsockhjPKcj,
                            __ZN18MultiFramedRTPSinkC2ER16UsageEnvironmentP9GroupsockhjPKcj,
                            __ZN18MultiFramedRTPSinkD0Ev,
                            __ZN18MultiFramedRTPSinkD1Ev,
                            __ZN18MultiFramedRTPSinkD2Ev,
                            __ZN18QCELPDeinterleaver14doGetNextFrameEv,
                            __ZN18QCELPDeinterleaver17afterGettingFrameEPvjj7timevalj,
                            __ZN18QCELPDeinterleaver18afterGettingFrame1Ej7timeval,
                            __ZN18QCELPDeinterleaver19doStopGettingFramesEv,
                            __ZN18QCELPDeinterleaver9createNewER16UsageEnvironmentP17RawQCELPRTPSource,
                            __ZN18QCELPDeinterleaverC1ER16UsageEnvironmentP17RawQCELPRTPSource,
                            __ZN18QCELPDeinterleaverC2ER16UsageEnvironmentP17RawQCELPRTPSource,
                            __ZN18QCELPDeinterleaverD0Ev,
                            __ZN18QCELPDeinterleaverD1Ev,
                            __ZN18QCELPDeinterleaverD2Ev,
                            __ZN18RTCPMemberDatabase14reapOldMembersEj,
                            __ZN18RTSPRegisterSender14grabConnectionERiR11sockaddr_in,
                            __ZN18RTSPRegisterSender16setRequestFieldsEPN10RTSPClient13RequestRecordERPcRhRPKcS4_S5_,
                            __ZN18RTSPRegisterSender22RequestRecord_REGISTERC1EjPFvP10RTSPClientiPcEPKchhS7_,
                            __ZN18RTSPRegisterSender22RequestRecord_REGISTERC2EjPFvP10RTSPClientiPcEPKchhS7_,
                            __ZN18RTSPRegisterSender22RequestRecord_REGISTERD0Ev,
                            __ZN18RTSPRegisterSender22RequestRecord_REGISTERD1Ev,
                            __ZN18RTSPRegisterSender22RequestRecord_REGISTERD2Ev,
                            __ZN18RTSPRegisterSender9createNewER16UsageEnvironmentPKctS3_PFvP10RTSPClientiPcEP13AuthenticatorhS3_hiS3_,
                            __ZN18RTSPRegisterSenderC1ER16UsageEnvironmentPKctS3_PFvP10RTSPClientiPcEP13AuthenticatorhS3_hiS3_,
                            __ZN18RTSPRegisterSenderC2ER16UsageEnvironmentPKctS3_PFvP10RTSPClientiPcEP13AuthenticatorhS3_hiS3_,
                            __ZN18RTSPRegisterSenderD0Ev,
                            __ZN18RTSPRegisterSenderD1Ev,
                            __ZN18RTSPRegisterSenderD2Ev,
                            __ZN18ServerMediaSession12lookupByNameER16UsageEnvironmentPKcRPS_,
                            __ZN18ServerMediaSession12noteLivenessEv,
                            __ZN18ServerMediaSession13addSubsessionEP21ServerMediaSubsession,
                            __ZN18ServerMediaSession15testScaleFactorERf,
                            __ZN18ServerMediaSession20deleteAllSubsessionsEv,
                            __ZN18ServerMediaSession22generateSDPDescriptionEv,
                            __ZN18ServerMediaSession9createNewER16UsageEnvironmentPKcS3_S3_hS3_,
                            __ZN18ServerMediaSessionC1ER16UsageEnvironmentPKcS3_S3_hS3_,
                            __ZN18ServerMediaSessionC2ER16UsageEnvironmentPKcS3_S3_hS3_,
                            __ZN18ServerMediaSessionD0Ev,
                            __ZN18ServerMediaSessionD1Ev,
                            __ZN18ServerMediaSessionD2Ev,
                            __ZN18TheoraVideoRTPSink10auxSDPLineEv,
                            __ZN18TheoraVideoRTPSink22doSpecialFrameHandlingEjPhj7timevalj,
                            __ZN18TheoraVideoRTPSink9createNewER16UsageEnvironmentP9GroupsockhPKc,
                            __ZN18TheoraVideoRTPSink9createNewER16UsageEnvironmentP9GroupsockhPhjS4_jS4_jj,
                            __ZN18TheoraVideoRTPSinkC1ER16UsageEnvironmentP9GroupsockhPhjS4_jS4_jj,
                            __ZN18TheoraVideoRTPSinkC2ER16UsageEnvironmentP9GroupsockhPhjS4_jS4_jj,
                            __ZN18TheoraVideoRTPSinkD0Ev,
                            __ZN18TheoraVideoRTPSinkD1Ev,
                            __ZN18TheoraVideoRTPSinkD2Ev,
                            __ZN18VorbisAudioRTPSink10auxSDPLineEv,
                            __ZN18VorbisAudioRTPSink22doSpecialFrameHandlingEjPhj7timevalj,
                            __ZN18VorbisAudioRTPSink9createNewER16UsageEnvironmentP9GroupsockhjjPKc,
                            __ZN18VorbisAudioRTPSink9createNewER16UsageEnvironmentP9GroupsockhjjPhjS4_jS4_jj,
                            __ZN18VorbisAudioRTPSinkC1ER16UsageEnvironmentP9GroupsockhjjPhjS4_jS4_jj,
                            __ZN18VorbisAudioRTPSinkC2ER16UsageEnvironmentP9GroupsockhjjPhjS4_jS4_jj,
                            __ZN18VorbisAudioRTPSinkD0Ev,
                            __ZN18VorbisAudioRTPSinkD1Ev,
                            __ZN18VorbisAudioRTPSinkD2Ev,
                            __ZN19BasicTaskScheduler011doEventLoopEPVc,
                            __ZN19BasicTaskScheduler012triggerEventEjPv,
                            __ZN19BasicTaskScheduler018createEventTriggerEPFvPvE,
                            __ZN19BasicTaskScheduler018deleteEventTriggerEj,
                            __ZN19BasicTaskScheduler019scheduleDelayedTaskExPFvPvES0_,
                            __ZN19BasicTaskScheduler021unscheduleDelayedTaskERPv,
                            __ZN19BasicTaskScheduler0C2Ev,
                            __ZN19BasicTaskScheduler0D0Ev,
                            __ZN19BasicTaskScheduler0D1Ev,
                            __ZN19BasicTaskScheduler0D2Ev,
                            __ZN19CAmbisonicProcessor14GetOrientationEv,
                            __ZN19CAmbisonicProcessor14SetOrientationE11Orientation,
                            __ZN19CAmbisonicProcessor16ProcessOrder1_3DEP8CBFormatj,
                            __ZN19CAmbisonicProcessor16ProcessOrder2_3DEP8CBFormatj,
                            __ZN19CAmbisonicProcessor16ProcessOrder3_3DEP8CBFormatj,
                            __ZN19CAmbisonicProcessor16ShelfFilterOrderEP8CBFormatj,
                            __ZN19CAmbisonicProcessor5ResetEv,
                            __ZN19CAmbisonicProcessor7ProcessEP8CBFormatj,
                            __ZN19CAmbisonicProcessor7RefreshEv,
                            __ZN19CAmbisonicProcessor9ConfigureEjbjj,
                            __ZN19CAmbisonicProcessorC1Ev,
                            __ZN19CAmbisonicProcessorC2Ev,
                            __ZN19CAmbisonicProcessorD0Ev,
                            __ZN19CAmbisonicProcessorD1Ev,
                            __ZN19CAmbisonicProcessorD2Ev,
                            __ZN19DVVideoStreamFramer10getProfileEv,
                            __ZN19DVVideoStreamFramer11profileNameEv,
                            __ZN19DVVideoStreamFramer14doGetNextFrameEv,
                            __ZN19DVVideoStreamFramer17afterGettingFrameEPvjj7timevalj,
                            __ZN19DVVideoStreamFramer17afterGettingFrameEjj7timeval,
                            __ZN19DVVideoStreamFramer17getAndDeliverDataEv,
                            __ZN19DVVideoStreamFramer18getFrameParametersERjRd,
                            __ZN19DVVideoStreamFramer9createNewER16UsageEnvironmentP12FramedSourcehh,
                            __ZN19DVVideoStreamFramerC1ER16UsageEnvironmentP12FramedSourcehh,
                            __ZN19DVVideoStreamFramerC2ER16UsageEnvironmentP12FramedSourcehh,
                            __ZN19DVVideoStreamFramerD0Ev,
                            __ZN19DVVideoStreamFramerD1Ev,
                            __ZN19DVVideoStreamFramerD2Ev,
                            __ZN19H264or5VideoRTPSink15continuePlayingEv,
                            __ZN19H264or5VideoRTPSink22doSpecialFrameHandlingEjPhj7timevalj,
                            __ZN19H264or5VideoRTPSinkC1EiR16UsageEnvironmentP9GroupsockhPKhjS5_jS5_j,
                            __ZN19H264or5VideoRTPSinkC2EiR16UsageEnvironmentP9GroupsockhPKhjS5_jS5_j,
                            __ZN19H264or5VideoRTPSinkD0Ev,
                            __ZN19H264or5VideoRTPSinkD1Ev,
                            __ZN19H264or5VideoRTPSinkD2Ev,
                            __ZN19MP3ADUdeinterleaver14doGetNextFrameEv,
                            __ZN19MP3ADUdeinterleaver17afterGettingFrameEj7timevalj,
                            __ZN19MP3ADUdeinterleaver20releaseOutgoingFrameEv,
                            __ZN19MP3ADUdeinterleaver9createNewER16UsageEnvironmentP12FramedSource,
                            __ZN19MP3ADUdeinterleaverC1ER16UsageEnvironmentP12FramedSource,
                            __ZN19MP3ADUdeinterleaverC2ER16UsageEnvironmentP12FramedSource,
                            __ZN19MP3ADUdeinterleaverD0Ev,
                            __ZN19MP3ADUdeinterleaverD1Ev,
                            __ZN19MP3ADUdeinterleaverD2Ev,
                            __ZN19MPEG4ESVideoRTPSink10auxSDPLineEv,
                            __ZN19MPEG4ESVideoRTPSink22doSpecialFrameHandlingEjPhj7timevalj,
                            __ZN19MPEG4ESVideoRTPSink24sourceIsCompatibleWithUsER11MediaSource,
                            __ZN19MPEG4ESVideoRTPSink9createNewER16UsageEnvironmentP9Groupsockhj,
                            __ZN19MPEG4ESVideoRTPSink9createNewER16UsageEnvironmentP9GroupsockhjhPKc,
                            __ZN19MPEG4ESVideoRTPSinkC1ER16UsageEnvironmentP9GroupsockhjhPKc,
                            __ZN19MPEG4ESVideoRTPSinkC2ER16UsageEnvironmentP9GroupsockhjhPKc,
                            __ZN19MPEG4ESVideoRTPSinkD0Ev,
                            __ZN19MPEG4ESVideoRTPSinkD1Ev,
                            __ZN19MPEG4ESVideoRTPSinkD2Ev,
                            __ZN19MPEG4GenericRTPSink10auxSDPLineEv,
                            __ZN19MPEG4GenericRTPSink22doSpecialFrameHandlingEjPhj7timevalj,
                            __ZN19MPEG4GenericRTPSink9createNewER16UsageEnvironmentP9GroupsockhjPKcS5_S5_j,
                            __ZN19MPEG4GenericRTPSinkC1ER16UsageEnvironmentP9GroupsockhjPKcS5_S5_j,
                            __ZN19MPEG4GenericRTPSinkC2ER16UsageEnvironmentP9GroupsockhjPKcS5_S5_j,
                            __ZN19MPEG4GenericRTPSinkD0Ev,
                            __ZN19MPEG4GenericRTPSinkD1Ev,
                            __ZN19MPEG4GenericRTPSinkD2Ev,
                            __ZN19QCELPAudioRTPSource9createNewER16UsageEnvironmentP9GroupsockRP9RTPSourcehj,
                            __ZN19QCELPBufferedPacket21nextEnclosedFrameSizeERPhj,
                            __ZN19QCELPBufferedPacketC1ER17RawQCELPRTPSource,
                            __ZN19QCELPBufferedPacketC2ER17RawQCELPRTPSource,
                            __ZN19QCELPBufferedPacketD0Ev,
                            __ZN19QCELPBufferedPacketD1Ev,
                            __ZN19QCELPBufferedPacketD2Ev,
                            __ZN19RTPReceptionStatsDB12removeRecordEj,
                            __ZN19RTPReceptionStatsDB14noteIncomingSREjjjj,
                            __ZN19RTPReceptionStatsDB18noteIncomingPacketEjtjjhR7timevalRhj,
                            __ZN19RTPReceptionStatsDB3addEjP17RTPReceptionStats,
                            __ZN19RTPReceptionStatsDB5resetEv,
                            __ZN19RTPReceptionStatsDB8Iterator4nextEh,
                            __ZN19RTPReceptionStatsDB8IteratorC1ERS_,
                            __ZN19RTPReceptionStatsDB8IteratorC2ERS_,
                            __ZN19RTPReceptionStatsDB8IteratorD0Ev,
                            __ZN19RTPReceptionStatsDB8IteratorD1Ev,
                            __ZN19RTPReceptionStatsDB8IteratorD2Ev,
                            __ZN19RTPReceptionStatsDBC1Ev,
                            __ZN19RTPReceptionStatsDBC2Ev,
                            __ZN19RTPReceptionStatsDBD0Ev,
                            __ZN19RTPReceptionStatsDBD1Ev,
                            __ZN19RTPReceptionStatsDBD2Ev,
                            __ZN20DeinterleavingFrames11releaseNextEv,
                            __ZN20DeinterleavingFrames13startNewCycleEv,
                            __ZN20DeinterleavingFrames20haveReleaseableFrameEv,
                            __ZN20DeinterleavingFrames22getIncomingFrameParamsERPhRj,
                            __ZN20DeinterleavingFrames23getReleasingFrameParamsERPhRjR7timevalS2_,
                            __ZN20DeinterleavingFrames26moveIncomingFrameIntoPlaceEv,
                            __ZN20DeinterleavingFrames27getIncomingFrameParamsAfterEj7timevaljRhS1_,
                            __ZN20DeinterleavingFramesC1Ev,
                            __ZN20DeinterleavingFramesC2Ev,
                            __ZN20DeinterleavingFramesD0Ev,
                            __ZN20DeinterleavingFramesD1Ev,
                            __ZN20DeinterleavingFramesD2Ev,
                            __ZN20DirectedNetInterfaceC2Ev,
                            __ZN20DirectedNetInterfaceD0Ev,
                            __ZN20DirectedNetInterfaceD1Ev,
                            __ZN20DirectedNetInterfaceD2Ev,
                            __ZN20GroupsockLookupTable5FetchER16UsageEnvironmentj4PorthRh,
                            __ZN20GroupsockLookupTable5FetchER16UsageEnvironmentjj4PortRh,
                            __ZN20GroupsockLookupTable6AddNewER16UsageEnvironmentjj4Porth,
                            __ZN20GroupsockLookupTable6LookupER16UsageEnvironmenti,
                            __ZN20GroupsockLookupTable6LookupEj4Port,
                            __ZN20GroupsockLookupTable6LookupEjj4Port,
                            __ZN20GroupsockLookupTable6RemoveEPK9Groupsock,
                            __ZN20GroupsockLookupTable8Iterator4nextEv,
                            __ZN20GroupsockLookupTable8IteratorC1ERS_,
                            __ZN20GroupsockLookupTable8IteratorC2ERS_,
                            __ZN20H263plusVideoRTPSink22doSpecialFrameHandlingEjPhj7timevalj,
                            __ZN20H263plusVideoRTPSink9createNewER16UsageEnvironmentP9Groupsockhj,
                            __ZN20H263plusVideoRTPSinkC1ER16UsageEnvironmentP9Groupsockhj,
                            __ZN20H263plusVideoRTPSinkC2ER16UsageEnvironmentP9Groupsockhj,
                            __ZN20H263plusVideoRTPSinkD0Ev,
                            __ZN20H263plusVideoRTPSinkD1Ev,
                            __ZN20H263plusVideoRTPSinkD2Ev,
                            __ZN20MPEG1or2AudioRTPSink22doSpecialFrameHandlingEjPhj7timevalj,
                            __ZN20MPEG1or2AudioRTPSink9createNewER16UsageEnvironmentP9Groupsock,
                            __ZN20MPEG1or2AudioRTPSinkC1ER16UsageEnvironmentP9Groupsock,
                            __ZN20MPEG1or2AudioRTPSinkC2ER16UsageEnvironmentP9Groupsock,
                            __ZN20MPEG1or2AudioRTPSinkD0Ev,
                            __ZN20MPEG1or2AudioRTPSinkD1Ev,
                            __ZN20MPEG1or2AudioRTPSinkD2Ev,
                            __ZN20MPEG1or2VideoRTPSink22doSpecialFrameHandlingEjPhj7timevalj,
                            __ZN20MPEG1or2VideoRTPSink24sourceIsCompatibleWithUsER11MediaSource,
                            __ZN20MPEG1or2VideoRTPSink9createNewER16UsageEnvironmentP9Groupsock,
                            __ZN20MPEG1or2VideoRTPSinkC1ER16UsageEnvironmentP9Groupsock,
                            __ZN20MPEG1or2VideoRTPSinkC2ER16UsageEnvironmentP9Groupsock,
                            __ZN20MPEG1or2VideoRTPSinkD0Ev,
                            __ZN20MPEG1or2VideoRTPSinkD1Ev,
                            __ZN20MPEG1or2VideoRTPSinkD2Ev,
                            __ZN20MultiFramedRTPSource14doGetNextFrameEv,
                            __ZN20MultiFramedRTPSource15doGetNextFrame1Ev,
                            __ZN20MultiFramedRTPSource18networkReadHandlerEPS_i,
                            __ZN20MultiFramedRTPSource19doStopGettingFramesEv,
                            __ZN20MultiFramedRTPSource19networkReadHandler1Ev,
                            __ZN20MultiFramedRTPSource20processSpecialHeaderEP14BufferedPacketRj,
                            __ZN20MultiFramedRTPSource32setPacketReorderingThresholdTimeEj,
                            __ZN20MultiFramedRTPSource33packetIsUsableInJitterCalculationEPhj,
                            __ZN20MultiFramedRTPSource5resetEv,
                            __ZN20MultiFramedRTPSourceC1ER16UsageEnvironmentP9GroupsockhjP21BufferedPacketFactory,
                            __ZN20MultiFramedRTPSourceC2ER16UsageEnvironmentP9GroupsockhjP21BufferedPacketFactory,
                            __ZN20MultiFramedRTPSourceD0Ev,
                            __ZN20MultiFramedRTPSourceD1Ev,
                            __ZN20MultiFramedRTPSourceD2Ev,
                            __ZN20RTPTransmissionStats14noteIncomingRRERK11sockaddr_injjjjj,
                            __ZN20RTPTransmissionStats18getTotalOctetCountERjS0_,
                            __ZN20RTPTransmissionStats19getTotalPacketCountERjS0_,
                            __ZN20RTPTransmissionStatsC1ER7RTPSinkj,
                            __ZN20RTPTransmissionStatsC2ER7RTPSinkj,
                            __ZN20RTPTransmissionStatsD0Ev,
                            __ZN20RTPTransmissionStatsD1Ev,
                            __ZN20RTPTransmissionStatsD2Ev,
                            __ZN20RTSPDeregisterSender16setRequestFieldsEPN10RTSPClient13RequestRecordERPcRhRPKcS4_S5_,
                            __ZN20RTSPDeregisterSender24RequestRecord_DEREGISTERC1EjPFvP10RTSPClientiPcEPKcS7_,
                            __ZN20RTSPDeregisterSender24RequestRecord_DEREGISTERC2EjPFvP10RTSPClientiPcEPKcS7_,
                            __ZN20RTSPDeregisterSender24RequestRecord_DEREGISTERD0Ev,
                            __ZN20RTSPDeregisterSender24RequestRecord_DEREGISTERD1Ev,
                            __ZN20RTSPDeregisterSender24RequestRecord_DEREGISTERD2Ev,
                            __ZN20RTSPDeregisterSender9createNewER16UsageEnvironmentPKctS3_PFvP10RTSPClientiPcEP13AuthenticatorS3_iS3_,
                            __ZN20RTSPDeregisterSenderC1ER16UsageEnvironmentPKctS3_PFvP10RTSPClientiPcEP13AuthenticatorS3_iS3_,
                            __ZN20RTSPDeregisterSenderC2ER16UsageEnvironmentPKctS3_PFvP10RTSPClientiPcEP13AuthenticatorS3_iS3_,
                            __ZN20RTSPDeregisterSenderD0Ev,
                            __ZN20RTSPDeregisterSenderD1Ev,
                            __ZN20RTSPDeregisterSenderD2Ev,
                            __ZN20SpeakersBinauralizer15AllocateBuffersEv,
                            __ZN20SpeakersBinauralizer7ProcessEPPfS1_,
                            __ZN20SpeakersBinauralizer9ConfigureEjjP17CAmbisonicSpeakerjRjNSt3__112basic_stringIcNS3_11char_traitsIcEENS3_9allocatorIcEEEE,
                            __ZN20SpeakersBinauralizerC1Ev,
                            __ZN20SpeakersBinauralizerC2Ev,
                            __ZN20TheoraBufferedPacket21nextEnclosedFrameSizeERPhj,
                            __ZN20TheoraBufferedPacketC1Ev,
                            __ZN20TheoraBufferedPacketC2Ev,
                            __ZN20TheoraBufferedPacketD0Ev,
                            __ZN20TheoraBufferedPacketD1Ev,
                            __ZN20TheoraBufferedPacketD2Ev,
                            __ZN20TheoraVideoRTPSource20processSpecialHeaderEP14BufferedPacketRj,
                            __ZN20TheoraVideoRTPSource9createNewER16UsageEnvironmentP9Groupsockh,
                            __ZN20TheoraVideoRTPSourceC1ER16UsageEnvironmentP9Groupsockh,
                            __ZN20TheoraVideoRTPSourceC2ER16UsageEnvironmentP9Groupsockh,
                            __ZN20TheoraVideoRTPSourceD0Ev,
                            __ZN20TheoraVideoRTPSourceD1Ev,
                            __ZN20TheoraVideoRTPSourceD2Ev,
                            __ZN20VorbisAudioRTPSource20processSpecialHeaderEP14BufferedPacketRj,
                            __ZN20VorbisAudioRTPSource9createNewER16UsageEnvironmentP9Groupsockhj,
                            __ZN20VorbisAudioRTPSourceC1ER16UsageEnvironmentP9Groupsockhj,
                            __ZN20VorbisAudioRTPSourceC2ER16UsageEnvironmentP9Groupsockhj,
                            __ZN20VorbisAudioRTPSourceD0Ev,
                            __ZN20VorbisAudioRTPSourceD1Ev,
                            __ZN20VorbisAudioRTPSourceD2Ev,
                            __ZN20VorbisBufferedPacket21nextEnclosedFrameSizeERPhj,
                            __ZN20VorbisBufferedPacketC1Ev,
                            __ZN20VorbisBufferedPacketC2Ev,
                            __ZN20VorbisBufferedPacketD0Ev,
                            __ZN20VorbisBufferedPacketD1Ev,
                            __ZN20VorbisBufferedPacketD2Ev,
                            __ZN21BasicUsageEnvironment9createNewER13TaskScheduler,
                            __ZN21BasicUsageEnvironmentC1ER13TaskScheduler,
                            __ZN21BasicUsageEnvironmentC2ER13TaskScheduler,
                            __ZN21BasicUsageEnvironmentD0Ev,
                            __ZN21BasicUsageEnvironmentD1Ev,
                            __ZN21BasicUsageEnvironmentD2Ev,
                            __ZN21BasicUsageEnvironmentlsEPKc,
                            __ZN21BasicUsageEnvironmentlsEPv,
                            __ZN21BasicUsageEnvironmentlsEd,
                            __ZN21BasicUsageEnvironmentlsEi,
                            __ZN21BasicUsageEnvironmentlsEj,
                            __ZN21BufferedPacketFactory15createNewPacketEP20MultiFramedRTPSource,
                            __ZN21BufferedPacketFactoryC1Ev,
                            __ZN21BufferedPacketFactoryC2Ev,
                            __ZN21BufferedPacketFactoryD0Ev,
                            __ZN21BufferedPacketFactoryD1Ev,
                            __ZN21BufferedPacketFactoryD2Ev,
                            __ZN21MP3ADUinterleaverBase14getInputSourceER16UsageEnvironmentPKc,
                            __ZN21MP3ADUinterleaverBase17afterGettingFrameEPvjj7timevalj,
                            __ZN21MP3ADUinterleaverBaseC2ER16UsageEnvironmentP12FramedSource,
                            __ZN21MP3ADUinterleaverBaseD0Ev,
                            __ZN21MP3ADUinterleaverBaseD1Ev,
                            __ZN21MP3ADUinterleaverBaseD2Ev,
                            __ZN21MPEG4ESVideoRTPSource20processSpecialHeaderEP14BufferedPacketRj,
                            __ZN21MPEG4ESVideoRTPSource9createNewER16UsageEnvironmentP9Groupsockhj,
                            __ZN21MPEG4ESVideoRTPSourceC1ER16UsageEnvironmentP9Groupsockhj,
                            __ZN21MPEG4ESVideoRTPSourceC2ER16UsageEnvironmentP9Groupsockhj,
                            __ZN21MPEG4ESVideoRTPSourceD0Ev,
                            __ZN21MPEG4ESVideoRTPSourceD1Ev,
                            __ZN21MPEG4ESVideoRTPSourceD2Ev,
                            __ZN21MPEG4GenericRTPSource20processSpecialHeaderEP14BufferedPacketRj,
                            __ZN21MPEG4GenericRTPSource9createNewER16UsageEnvironmentP9GroupsockhjPKcS5_jjj,
                            __ZN21MPEG4GenericRTPSourceC1ER16UsageEnvironmentP9GroupsockhjPKcS5_jjj,
                            __ZN21MPEG4GenericRTPSourceC2ER16UsageEnvironmentP9GroupsockhjPKcS5_jjj,
                            __ZN21MPEG4GenericRTPSourceD0Ev,
                            __ZN21MPEG4GenericRTPSourceD1Ev,
                            __ZN21MPEG4GenericRTPSourceD2Ev,
                            __ZN21MPEG4LATMAudioRTPSink10auxSDPLineEv,
                            __ZN21MPEG4LATMAudioRTPSink22doSpecialFrameHandlingEjPhj7timevalj,
                            __ZN21MPEG4LATMAudioRTPSink9createNewER16UsageEnvironmentP9GroupsockhjPKcjh,
                            __ZN21MPEG4LATMAudioRTPSinkC1ER16UsageEnvironmentP9GroupsockhjPKcjh,
                            __ZN21MPEG4LATMAudioRTPSinkC2ER16UsageEnvironmentP9GroupsockhjPKcjh,
                            __ZN21MPEG4LATMAudioRTPSinkD0Ev,
                            __ZN21MPEG4LATMAudioRTPSinkD1Ev,
                            __ZN21MPEG4LATMAudioRTPSinkD2Ev,
                            __ZN21MPEGVideoStreamFramer10flushInputEv,
                            __ZN21MPEGVideoStreamFramer11setTimeCodeEjjjjj,
                            __ZN21MPEGVideoStreamFramer14doGetNextFrameEv,
                            __ZN21MPEGVideoStreamFramer19doStopGettingFramesEv,
                            __ZN21MPEGVideoStreamFramer22continueReadProcessingEPvPhj7timeval,
                            __ZN21MPEGVideoStreamFramer22continueReadProcessingEv,
                            __ZN21MPEGVideoStreamFramer23computePresentationTimeEj,
                            __ZN21MPEGVideoStreamFramer5resetEv,
                            __ZN21MPEGVideoStreamFramerC1ER16UsageEnvironmentP12FramedSource,
                            __ZN21MPEGVideoStreamFramerC2ER16UsageEnvironmentP12FramedSource,
                            __ZN21MPEGVideoStreamFramerD0Ev,
                            __ZN21MPEGVideoStreamFramerD1Ev,
                            __ZN21MPEGVideoStreamFramerD2Ev,
                            __ZN21MPEGVideoStreamParser20registerReadInterestEPhj,
                            __ZN21MPEGVideoStreamParser23restoreSavedParserStateEv,
                            __ZN21MPEGVideoStreamParserC2EP21MPEGVideoStreamFramerP12FramedSource,
                            __ZN21MPEGVideoStreamParserD0Ev,
                            __ZN21MPEGVideoStreamParserD1Ev,
                            __ZN21MPEGVideoStreamParserD2Ev,
                            __ZN21ServerMediaSubsession10seekStreamEjPvRPcS2_,
                            __ZN21ServerMediaSubsession10seekStreamEjPvRddRy,
                            __ZN21ServerMediaSubsession11pauseStreamEjPv,
                            __ZN21ServerMediaSubsession12deleteStreamEjRPv,
                            __ZN21ServerMediaSubsession13getCurrentNPTEPv,
                            __ZN21ServerMediaSubsession14nullSeekStreamEjPvdRy,
                            __ZN21ServerMediaSubsession14setStreamScaleEjPvf,
                            __ZN21ServerMediaSubsession15getStreamSourceEPv,
                            __ZN21ServerMediaSubsession15testScaleFactorERf,
                            __ZN21ServerMediaSubsession29setServerAddressAndPortForSDPEjt,
                            __ZN21ServerMediaSubsession7trackIdEv,
                            __ZN21ServerMediaSubsessionC2ER16UsageEnvironment,
                            __ZN21ServerMediaSubsessionD0Ev,
                            __ZN21ServerMediaSubsessionD1Ev,
                            __ZN21ServerMediaSubsessionD2Ev,
                            __ZN22AddressPortLookupTable3AddEjj4PortPv,
                            __ZN22AddressPortLookupTable6LookupEjj4Port,
                            __ZN22AddressPortLookupTable6RemoveEjj4Port,
                            __ZN22AddressPortLookupTable8Iterator4nextEv,
                            __ZN22AddressPortLookupTable8IteratorC1ERS_,
                            __ZN22AddressPortLookupTable8IteratorC2ERS_,
                            __ZN22AddressPortLookupTable8IteratorD0Ev,
                            __ZN22AddressPortLookupTable8IteratorD1Ev,
                            __ZN22AddressPortLookupTable8IteratorD2Ev,
                            __ZN22AddressPortLookupTableC1Ev,
                            __ZN22AddressPortLookupTableC2Ev,
                            __ZN22AddressPortLookupTableD0Ev,
                            __ZN22AddressPortLookupTableD1Ev,
                            __ZN22AddressPortLookupTableD2Ev,
                            __ZN22BasicUsageEnvironment012setResultMsgEPKc,
                            __ZN22BasicUsageEnvironment012setResultMsgEPKcS1_,
                            __ZN22BasicUsageEnvironment012setResultMsgEPKcS1_S1_,
                            __ZN22BasicUsageEnvironment015setResultErrMsgEPKci,
                            __ZN22BasicUsageEnvironment017appendToResultMsgEPKc,
                            __ZN22BasicUsageEnvironment021reportBackgroundErrorEv,
                            __ZN22BasicUsageEnvironment05resetEv,
                            __ZN22BasicUsageEnvironment0C2ER13TaskScheduler,
                            __ZN22BasicUsageEnvironment0D0Ev,
                            __ZN22BasicUsageEnvironment0D1Ev,
                            __ZN22BasicUsageEnvironment0D2Ev,
                            __ZN22CAmbisonicBinauralizer15AllocateBuffersEv,
                            __ZN22CAmbisonicBinauralizer15ArrangeSpeakersEv,
                            __ZN22CAmbisonicBinauralizer5ResetEv,
                            __ZN22CAmbisonicBinauralizer7ProcessEP8CBFormatPPf,
                            __ZN22CAmbisonicBinauralizer7RefreshEv,
                            __ZN22CAmbisonicBinauralizer7getHRTFEjNSt3__112basic_stringIcNS0_11char_traitsIcEENS0_9allocatorIcEEEE,
                            __ZN22CAmbisonicBinauralizer9ConfigureEjbjjRjNSt3__112basic_stringIcNS1_11char_traitsIcEENS1_9allocatorIcEEEE,
                            __ZN22CAmbisonicBinauralizerC1Ev,
                            __ZN22CAmbisonicBinauralizerC2Ev,
                            __ZN22H263plusVideoRTPSource20processSpecialHeaderEP14BufferedPacketRj,
                            __ZN22H263plusVideoRTPSource9createNewER16UsageEnvironmentP9Groupsockhj,
                            __ZN22H263plusVideoRTPSourceC1ER16UsageEnvironmentP9Groupsockhj,
                            __ZN22H263plusVideoRTPSourceC2ER16UsageEnvironmentP9Groupsockhj,
                            __ZN22H263plusVideoRTPSourceD0Ev,
                            __ZN22H263plusVideoRTPSourceD1Ev,
                            __ZN22H263plusVideoRTPSourceD2Ev,
                            __ZN22MP3HuffmanEncodingInfoC1Eh,
                            __ZN22MP3HuffmanEncodingInfoC2Eh,
                            __ZN22MP3HuffmanEncodingInfoD1Ev,
                            __ZN22MP3HuffmanEncodingInfoD2Ev,
                            __ZN22MPEG1or2AudioRTPSource20processSpecialHeaderEP14BufferedPacketRj,
                            __ZN22MPEG1or2AudioRTPSource9createNewER16UsageEnvironmentP9Groupsockhj,
                            __ZN22MPEG1or2AudioRTPSourceC1ER16UsageEnvironmentP9Groupsockhj,
                            __ZN22MPEG1or2AudioRTPSourceC2ER16UsageEnvironmentP9Groupsockhj,
                            __ZN22MPEG1or2AudioRTPSourceD0Ev,
                            __ZN22MPEG1or2AudioRTPSourceD1Ev,
                            __ZN22MPEG1or2AudioRTPSourceD2Ev,
                            __ZN22MPEG1or2VideoRTPSource20processSpecialHeaderEP14BufferedPacketRj,
                            __ZN22MPEG1or2VideoRTPSource33packetIsUsableInJitterCalculationEPhj,
                            __ZN22MPEG1or2VideoRTPSource9createNewER16UsageEnvironmentP9Groupsockhj,
                            __ZN22MPEG1or2VideoRTPSourceC1ER16UsageEnvironmentP9Groupsockhj,
                            __ZN22MPEG1or2VideoRTPSourceC2ER16UsageEnvironmentP9Groupsockhj,
                            __ZN22MPEG1or2VideoRTPSourceD0Ev,
                            __ZN22MPEG1or2VideoRTPSourceD1Ev,
                            __ZN22MPEG1or2VideoRTPSourceD2Ev,
                            __ZN22MPEG4VideoStreamFramer13setConfigInfoEhPKc,
                            __ZN22MPEG4VideoStreamFramer14startNewConfigEv,
                            __ZN22MPEG4VideoStreamFramer17appendToNewConfigEPhj,
                            __ZN22MPEG4VideoStreamFramer17completeNewConfigEv,
                            __ZN22MPEG4VideoStreamFramer9createNewER16UsageEnvironmentP12FramedSource,
                            __ZN22MPEG4VideoStreamFramerC1ER16UsageEnvironmentP12FramedSourceh,
                            __ZN22MPEG4VideoStreamFramerC2ER16UsageEnvironmentP12FramedSourceh,
                            __ZN22MPEG4VideoStreamFramerD0Ev,
                            __ZN22MPEG4VideoStreamFramerD1Ev,
                            __ZN22MPEG4VideoStreamFramerD2Ev,
                            __ZN22MPEG4VideoStreamParser10flushInputEv,
                            __ZN22MPEG4VideoStreamParser13setParseStateE14MPEGParseState,
                            __ZN22MPEG4VideoStreamParser15getNextFrameBitERh,
                            __ZN22MPEG4VideoStreamParser16analyzeVOLHeaderEv,
                            __ZN22MPEG4VideoStreamParser16getNextFrameBitsEjRj,
                            __ZN22MPEG4VideoStreamParser17parseVisualObjectEv,
                            __ZN22MPEG4VideoStreamParser21parseVideoObjectLayerEv,
                            __ZN22MPEG4VideoStreamParser21parseVideoObjectPlaneEv,
                            __ZN22MPEG4VideoStreamParser25parseVisualObjectSequenceEh,
                            __ZN22MPEG4VideoStreamParser28parseGroupOfVideoObjectPlaneEv,
                            __ZN22MPEG4VideoStreamParser32parseVisualObjectSequenceEndCodeEv,
                            __ZN22MPEG4VideoStreamParser5parseEv,
                            __ZN22MPEG4VideoStreamParserC1EP22MPEG4VideoStreamFramerP12FramedSource,
                            __ZN22MPEG4VideoStreamParserC2EP22MPEG4VideoStreamFramerP12FramedSource,
                            __ZN22MPEG4VideoStreamParserD0Ev,
                            __ZN22MPEG4VideoStreamParserD1Ev,
                            __ZN22MPEG4VideoStreamParserD2Ev,
                            __ZN22RTPTransmissionStatsDB12removeRecordEj,
                            __ZN22RTPTransmissionStatsDB14noteIncomingRREjRK11sockaddr_injjjjj,
                            __ZN22RTPTransmissionStatsDB3addEjP20RTPTransmissionStats,
                            __ZN22RTPTransmissionStatsDB8Iterator4nextEv,
                            __ZN22RTPTransmissionStatsDB8IteratorC1ERS_,
                            __ZN22RTPTransmissionStatsDB8IteratorC2ERS_,
                            __ZN22RTPTransmissionStatsDB8IteratorD0Ev,
                            __ZN22RTPTransmissionStatsDB8IteratorD1Ev,
                            __ZN22RTPTransmissionStatsDB8IteratorD2Ev,
                            __ZN22RTPTransmissionStatsDBC1ER7RTPSink,
                            __ZN22RTPTransmissionStatsDBC2ER7RTPSink,
                            __ZN22RTPTransmissionStatsDBD0Ev,
                            __ZN22RTPTransmissionStatsDBD1Ev,
                            __ZN22RTPTransmissionStatsDBD2Ev,
                            __ZN22ReorderingPacketBuffer11storePacketEP14BufferedPacket,
                            __ZN22ReorderingPacketBuffer13getFreePacketEP20MultiFramedRTPSource,
                            __ZN22ReorderingPacketBuffer17releaseUsedPacketEP14BufferedPacket,
                            __ZN22ReorderingPacketBuffer22getNextCompletedPacketERh,
                            __ZN22ReorderingPacketBuffer5resetEv,
                            __ZN22ReorderingPacketBufferC1EP21BufferedPacketFactory,
                            __ZN22ReorderingPacketBufferC2EP21BufferedPacketFactory,
                            __ZN22ReorderingPacketBufferD0Ev,
                            __ZN22ReorderingPacketBufferD1Ev,
                            __ZN22ReorderingPacketBufferD2Ev,
                            __ZN23AMRDeinterleavingBuffer13retrieveFrameEPhjRjS1_RhR7timevalS2_,
                            __ZN23AMRDeinterleavingBuffer15FrameDescriptorC1Ev,
                            __ZN23AMRDeinterleavingBuffer15FrameDescriptorC2Ev,
                            __ZN23AMRDeinterleavingBuffer15FrameDescriptorD0Ev,
                            __ZN23AMRDeinterleavingBuffer15FrameDescriptorD1Ev,
                            __ZN23AMRDeinterleavingBuffer15FrameDescriptorD2Ev,
                            __ZN23AMRDeinterleavingBuffer15createNewBufferEv,
                            __ZN23AMRDeinterleavingBuffer20deliverIncomingFrameEjP15RawAMRRTPSource7timeval,
                            __ZN23AMRDeinterleavingBufferC1Ejj,
                            __ZN23AMRDeinterleavingBufferC2Ejj,
                            __ZN23AMRDeinterleavingBufferD0Ev,
                            __ZN23AMRDeinterleavingBufferD1Ev,
                            __ZN23AMRDeinterleavingBufferD2Ev,
                            __ZN23DirectedNetInterfaceSet3AddEPK20DirectedNetInterface,
                            __ZN23DirectedNetInterfaceSet6RemoveEPK20DirectedNetInterface,
                            __ZN23DirectedNetInterfaceSet8Iterator4nextEv,
                            __ZN23DirectedNetInterfaceSet8IteratorC1ERS_,
                            __ZN23DirectedNetInterfaceSet8IteratorC2ERS_,
                            __ZN23DirectedNetInterfaceSet8IteratorD0Ev,
                            __ZN23DirectedNetInterfaceSet8IteratorD1Ev,
                            __ZN23DirectedNetInterfaceSet8IteratorD2Ev,
                            __ZN23DirectedNetInterfaceSetC1Ev,
                            __ZN23DirectedNetInterfaceSetC2Ev,
                            __ZN23DirectedNetInterfaceSetD0Ev,
                            __ZN23DirectedNetInterfaceSetD1Ev,
                            __ZN23DirectedNetInterfaceSetD2Ev,
                            __ZN23MPEG4LATMAudioRTPSource20processSpecialHeaderEP14BufferedPacketRj,
                            __ZN23MPEG4LATMAudioRTPSource23omitLATMDataLengthFieldEv,
                            __ZN23MPEG4LATMAudioRTPSource9createNewER16UsageEnvironmentP9Groupsockhj,
                            __ZN23MPEG4LATMAudioRTPSourceC1ER16UsageEnvironmentP9Groupsockhj,
                            __ZN23MPEG4LATMAudioRTPSourceC2ER16UsageEnvironmentP9Groupsockhj,
                            __ZN23MPEG4LATMAudioRTPSourceD0Ev,
                            __ZN23MPEG4LATMAudioRTPSourceD1Ev,
                            __ZN23MPEG4LATMAudioRTPSourceD2Ev,
                            __ZN23MediaSubsessionIterator4nextEv,
                            __ZN23MediaSubsessionIterator5resetEv,
                            __ZN23MediaSubsessionIteratorC1ERK12MediaSession,
                            __ZN23MediaSubsessionIteratorC2ERK12MediaSession,
                            __ZN23MediaSubsessionIteratorD0Ev,
                            __ZN23MediaSubsessionIteratorD1Ev,
                            __ZN23MediaSubsessionIteratorD2Ev,
                            __ZN23ProxyServerMediaSession10createRTCPEP9GroupsockjPKhP7RTPSink,
                            __ZN23ProxyServerMediaSession15createGroupsockERK7in_addr4Port,
                            __ZN23ProxyServerMediaSession18resetDESCRIBEStateEv,
                            __ZN23ProxyServerMediaSession21continueAfterDESCRIBEEPKc,
                            __ZN23ProxyServerMediaSession26allowProxyingForSubsessionERK15MediaSubsession,
                            __ZN23ProxyServerMediaSession9createNewER16UsageEnvironmentP18GenericMediaServerPKcS5_S5_S5_tiiP21MediaTranscodingTable,
                            __ZN23ProxyServerMediaSessionC1ER16UsageEnvironmentP18GenericMediaServerPKcS5_S5_S5_tiiP21MediaTranscodingTablePFP15ProxyRTSPClientRS_S5_S5_S5_tiiEth,
                            __ZN23ProxyServerMediaSessionC2ER16UsageEnvironmentP18GenericMediaServerPKcS5_S5_S5_tiiP21MediaTranscodingTablePFP15ProxyRTSPClientRS_S5_S5_S5_tiiEth,
                            __ZN23ProxyServerMediaSessionD0Ev,
                            __ZN23ProxyServerMediaSessionD1Ev,
                            __ZN23ProxyServerMediaSessionD2Ev,
                            __ZN23QTGenericBufferedPacket21nextEnclosedFrameSizeERPhj,
                            __ZN23QTGenericBufferedPacketC1ER25QuickTimeGenericRTPSource,
                            __ZN23QTGenericBufferedPacketC2ER25QuickTimeGenericRTPSource,
                            __ZN23QTGenericBufferedPacketD0Ev,
                            __ZN23QTGenericBufferedPacketD1Ev,
                            __ZN23QTGenericBufferedPacketD2Ev,
                            __ZN24ADUBufferedPacketFactory15createNewPacketEP20MultiFramedRTPSource,
                            __ZN24AMRBufferedPacketFactory15createNewPacketEP20MultiFramedRTPSource,
                            __ZN24H264or5VideoStreamFramer13saveCopyOfPPSEPhj,
                            __ZN24H264or5VideoStreamFramer13saveCopyOfSPSEPhj,
                            __ZN24H264or5VideoStreamFramer13saveCopyOfVPSEPhj,
                            __ZN24H264or5VideoStreamFramer5isPPSEh,
                            __ZN24H264or5VideoStreamFramer5isSPSEh,
                            __ZN24H264or5VideoStreamFramer5isVCLEh,
                            __ZN24H264or5VideoStreamFramer5isVPSEh,
                            __ZN24H264or5VideoStreamFramerC1EiR16UsageEnvironmentP12FramedSourcehh,
                            __ZN24H264or5VideoStreamFramerC2EiR16UsageEnvironmentP12FramedSourcehh,
                            __ZN24H264or5VideoStreamFramerD0Ev,
                            __ZN24H264or5VideoStreamFramerD1Ev,
                            __ZN24H264or5VideoStreamFramerD2Ev,
                            __ZN24H264or5VideoStreamParser10flushInputEv,
                            __ZN24H264or5VideoStreamParser16analyze_sei_dataEh,
                            __ZN24H264or5VideoStreamParser18profile_tier_levelER9BitVectorj,
                            __ZN24H264or5VideoStreamParser19analyze_sei_payloadEjjPh,
                            __ZN24H264or5VideoStreamParser20removeEmulationBytesEPhjRj,
                            __ZN24H264or5VideoStreamParser22analyze_hrd_parametersER9BitVector,
                            __ZN24H264or5VideoStreamParser22analyze_vui_parametersER9BitVectorRjS2_,
                            __ZN24H264or5VideoStreamParser23usuallyBeginsAccessUnitEh,
                            __ZN24H264or5VideoStreamParser30analyze_seq_parameter_set_dataERjS0_,
                            __ZN24H264or5VideoStreamParser32analyze_video_parameter_set_dataERjS0_,
                            __ZN24H264or5VideoStreamParser5isEOFEh,
                            __ZN24H264or5VideoStreamParser5isSEIEh,
                            __ZN24H264or5VideoStreamParser5parseEv,
                            __ZN24H264or5VideoStreamParserC1EiP24H264or5VideoStreamFramerP12FramedSourceh,
                            __ZN24H264or5VideoStreamParserC2EiP24H264or5VideoStreamFramerP12FramedSourceh,
                            __ZN24H264or5VideoStreamParserD0Ev,
                            __ZN24H264or5VideoStreamParserD1Ev,
                            __ZN24H264or5VideoStreamParserD2Ev,
                            __ZN24NetInterfaceTrafficStats11countPacketEj,
                            __ZN24NetInterfaceTrafficStatsC1Ev,
                            __ZN24NetInterfaceTrafficStatsC2Ev,
                            __ZN25H264BufferedPacketFactory15createNewPacketEP20MultiFramedRTPSource,
                            __ZN25H265BufferedPacketFactory15createNewPacketEP20MultiFramedRTPSource,
                            __ZN25JPEGBufferedPacketFactory15createNewPacketEP20MultiFramedRTPSource,
                            __ZN25LATMBufferedPacketFactory15createNewPacketEP20MultiFramedRTPSource,
                            __ZN25MPEG1or2VideoStreamFramer9createNewER16UsageEnvironmentP12FramedSourcehd,
                            __ZN25MPEG1or2VideoStreamFramerC1ER16UsageEnvironmentP12FramedSourcehdh,
                            __ZN25MPEG1or2VideoStreamFramerC2ER16UsageEnvironmentP12FramedSourcehdh,
                            __ZN25MPEG1or2VideoStreamFramerD0Ev,
                            __ZN25MPEG1or2VideoStreamFramerD1Ev,
                            __ZN25MPEG1or2VideoStreamFramerD2Ev,
                            __ZN25MPEG1or2VideoStreamParser10flushInputEv,
                            __ZN25MPEG1or2VideoStreamParser10parseSliceEv,
                            __ZN25MPEG1or2VideoStreamParser11useSavedVSHEv,
                            __ZN25MPEG1or2VideoStreamParser13setParseStateE14MPEGParseState,
                            __ZN25MPEG1or2VideoStreamParser14parseGOPHeaderEh,
                            __ZN25MPEG1or2VideoStreamParser14saveCurrentVSHEv,
                            __ZN25MPEG1or2VideoStreamParser17needToUseSavedVSHEv,
                            __ZN25MPEG1or2VideoStreamParser18parsePictureHeaderEv,
                            __ZN25MPEG1or2VideoStreamParser24parseVideoSequenceHeaderEh,
                            __ZN25MPEG1or2VideoStreamParser5parseEv,
                            __ZN25MPEG1or2VideoStreamParser5resetEv,
                            __ZN25MPEG1or2VideoStreamParserC1EP25MPEG1or2VideoStreamFramerP12FramedSourcehd,
                            __ZN25MPEG1or2VideoStreamParserC2EP25MPEG1or2VideoStreamFramerP12FramedSourcehd,
                            __ZN25MPEG1or2VideoStreamParserD0Ev,
                            __ZN25MPEG1or2VideoStreamParserD1Ev,
                            __ZN25MPEG1or2VideoStreamParserD2Ev,
                            __ZN25QCELPDeinterleavingBuffer13retrieveFrameEPhjRjS1_R7timeval,
                            __ZN25QCELPDeinterleavingBuffer15FrameDescriptorC1Ev,
                            __ZN25QCELPDeinterleavingBuffer15FrameDescriptorC2Ev,
                            __ZN25QCELPDeinterleavingBuffer15FrameDescriptorD0Ev,
                            __ZN25QCELPDeinterleavingBuffer15FrameDescriptorD1Ev,
                            __ZN25QCELPDeinterleavingBuffer15FrameDescriptorD2Ev,
                            __ZN25QCELPDeinterleavingBuffer20deliverIncomingFrameEjhhht7timeval,
                            __ZN25QCELPDeinterleavingBufferC1Ev,
                            __ZN25QCELPDeinterleavingBufferC2Ev,
                            __ZN25QCELPDeinterleavingBufferD0Ev,
                            __ZN25QCELPDeinterleavingBufferD1Ev,
                            __ZN25QCELPDeinterleavingBufferD2Ev,
                            __ZN25QuickTimeGenericRTPSource20processSpecialHeaderEP14BufferedPacketRj,
                            __ZN25QuickTimeGenericRTPSource9createNewER16UsageEnvironmentP9GroupsockhjPKc,
                            __ZN25QuickTimeGenericRTPSourceC1ER16UsageEnvironmentP9GroupsockhjPKc,
                            __ZN25QuickTimeGenericRTPSourceC2ER16UsageEnvironmentP9GroupsockhjPKc,
                            __ZN25QuickTimeGenericRTPSourceD0Ev,
                            __ZN25QuickTimeGenericRTPSourceD1Ev,
                            __ZN25QuickTimeGenericRTPSourceD2Ev,
                            __ZN26MPEG2TransportStreamFramer11setPCRLimitEf,
                            __ZN26MPEG2TransportStreamFramer14doGetNextFrameEv,
                            __ZN26MPEG2TransportStreamFramer17afterGettingFrameEPvjj7timevalj,
                            __ZN26MPEG2TransportStreamFramer18afterGettingFrame1Ej7timeval,
                            __ZN26MPEG2TransportStreamFramer19clearPIDStatusTableEv,
                            __ZN26MPEG2TransportStreamFramer19doStopGettingFramesEv,
                            __ZN26MPEG2TransportStreamFramer23setNumTSPacketsToStreamEm,
                            __ZN26MPEG2TransportStreamFramer30updateTSPacketDurationEstimateEPhd,
                            __ZN26MPEG2TransportStreamFramer9createNewER16UsageEnvironmentP12FramedSource,
                            __ZN26MPEG2TransportStreamFramerC1ER16UsageEnvironmentP12FramedSource,
                            __ZN26MPEG2TransportStreamFramerC2ER16UsageEnvironmentP12FramedSource,
                            __ZN26MPEG2TransportStreamFramerD0Ev,
                            __ZN26MPEG2TransportStreamFramerD1Ev,
                            __ZN26MPEG2TransportStreamFramerD2Ev,
                            __ZN26MPEG4GenericBufferedPacket21nextEnclosedFrameSizeERPhj,
                            __ZN26MPEG4GenericBufferedPacketC1EP21MPEG4GenericRTPSource,
                            __ZN26MPEG4GenericBufferedPacketC2EP21MPEG4GenericRTPSource,
                            __ZN26MPEG4GenericBufferedPacketD0Ev,
                            __ZN26MPEG4GenericBufferedPacketD1Ev,
                            __ZN26MPEG4GenericBufferedPacketD2Ev,
                            __ZN26ProxyServerMediaSubsession10createRTCPEP9GroupsockjPKhP7RTPSink,
                            __ZN26ProxyServerMediaSubsession15createGroupsockERK7in_addr4Port,
                            __ZN26ProxyServerMediaSubsession16createNewRTPSinkEP9GroupsockhP12FramedSource,
                            __ZN26ProxyServerMediaSubsession17closeStreamSourceEP12FramedSource,
                            __ZN26ProxyServerMediaSubsession20subsessionByeHandlerEPv,
                            __ZN26ProxyServerMediaSubsession20subsessionByeHandlerEv,
                            __ZN26ProxyServerMediaSubsession21createNewStreamSourceEjRj,
                            __ZN26ProxyServerMediaSubsessionC1ER15MediaSubsessionth,
                            __ZN26ProxyServerMediaSubsessionC2ER15MediaSubsessionth,
                            __ZN26ProxyServerMediaSubsessionD0Ev,
                            __ZN26ProxyServerMediaSubsessionD1Ev,
                            __ZN26ProxyServerMediaSubsessionD2Ev,
                            __ZN26QCELPBufferedPacketFactory15createNewPacketEP20MultiFramedRTPSource,
                            __ZN26UserAuthenticationDatabase13addUserRecordEPKcS1_,
                            __ZN26UserAuthenticationDatabase14lookupPasswordEPKc,
                            __ZN26UserAuthenticationDatabase16removeUserRecordEPKc,
                            __ZN26UserAuthenticationDatabaseC1EPKch,
                            __ZN26UserAuthenticationDatabaseC2EPKch,
                            __ZN26UserAuthenticationDatabaseD0Ev,
                            __ZN26UserAuthenticationDatabaseD1Ev,
                            __ZN26UserAuthenticationDatabaseD2Ev,
                            __ZN27TheoraBufferedPacketFactory15createNewPacketEP20MultiFramedRTPSource,
                            __ZN27VorbisBufferedPacketFactory15createNewPacketEP20MultiFramedRTPSource,
                            __ZN29H264VideoStreamDiscreteFramer9createNewER16UsageEnvironmentP12FramedSource,
                            __ZN29H264VideoStreamDiscreteFramerC1ER16UsageEnvironmentP12FramedSource,
                            __ZN29H264VideoStreamDiscreteFramerC2ER16UsageEnvironmentP12FramedSource,
                            __ZN29H264VideoStreamDiscreteFramerD0Ev,
                            __ZN29H264VideoStreamDiscreteFramerD1Ev,
                            __ZN29H264VideoStreamDiscreteFramerD2Ev,
                            __ZN29H265VideoStreamDiscreteFramer9createNewER16UsageEnvironmentP12FramedSource,
                            __ZN29H265VideoStreamDiscreteFramerC1ER16UsageEnvironmentP12FramedSource,
                            __ZN29H265VideoStreamDiscreteFramerC2ER16UsageEnvironmentP12FramedSource,
                            __ZN29H265VideoStreamDiscreteFramerD0Ev,
                            __ZN29H265VideoStreamDiscreteFramerD1Ev,
                            __ZN29H265VideoStreamDiscreteFramerD2Ev,
                            __ZN29OnDemandServerMediaSubsession10createRTCPEP9GroupsockjPKhP7RTPSink,
                            __ZN29OnDemandServerMediaSubsession10seekStreamEjPvRPcS2_,
                            __ZN29OnDemandServerMediaSubsession10seekStreamEjPvRddRy,
                            __ZN29OnDemandServerMediaSubsession11pauseStreamEjPv,
                            __ZN29OnDemandServerMediaSubsession11startStreamEjPvPFvS0_ES0_RtRjPFvS0_hES0_,
                            __ZN29OnDemandServerMediaSubsession12deleteStreamEjRPv,
                            __ZN29OnDemandServerMediaSubsession13getAuxSDPLineEP7RTPSinkP12FramedSource,
                            __ZN29OnDemandServerMediaSubsession13getCurrentNPTEPv,
                            __ZN29OnDemandServerMediaSubsession14nullSeekStreamEjPvdRy,
                            __ZN29OnDemandServerMediaSubsession14setStreamScaleEjPvf,
                            __ZN29OnDemandServerMediaSubsession15createGroupsockERK7in_addr4Port,
                            __ZN29OnDemandServerMediaSubsession15getStreamSourceEPv,
                            __ZN29OnDemandServerMediaSubsession16seekStreamSourceEP12FramedSourceRPcS3_,
                            __ZN29OnDemandServerMediaSubsession16seekStreamSourceEP12FramedSourceRddRy,
                            __ZN29OnDemandServerMediaSubsession17closeStreamSourceEP12FramedSource,
                            __ZN29OnDemandServerMediaSubsession17getRTPSinkandRTCPEPvRPK7RTPSinkRPK12RTCPInstance,
                            __ZN29OnDemandServerMediaSubsession17sendRTCPAppPacketEhPKcPhj,
                            __ZN29OnDemandServerMediaSubsession19getStreamParametersEjjRK4PortS2_ihhRjRhS4_RS0_S5_RPv,
                            __ZN29OnDemandServerMediaSubsession20setStreamSourceScaleEP12FramedSourcef,
                            __ZN29OnDemandServerMediaSubsession22setSDPLinesFromRTPSinkEP7RTPSinkP12FramedSourcej,
                            __ZN29OnDemandServerMediaSubsession23setRTCPAppPacketHandlerEPFvPvhjPhjES0_,
                            __ZN29OnDemandServerMediaSubsession23setStreamSourceDurationEP12FramedSourcedRy,
                            __ZN29OnDemandServerMediaSubsession8sdpLinesEv,
                            __ZN29OnDemandServerMediaSubsessionC2ER16UsageEnvironmenthth,
                            __ZN29OnDemandServerMediaSubsessionD0Ev,
                            __ZN29OnDemandServerMediaSubsessionD1Ev,
                            __ZN29OnDemandServerMediaSubsessionD2Ev,
                            __ZN29ServerMediaSubsessionIterator4nextEv,
                            __ZN29ServerMediaSubsessionIterator5resetEv,
                            __ZN29ServerMediaSubsessionIteratorC1ER18ServerMediaSession,
                            __ZN29ServerMediaSubsessionIteratorC2ER18ServerMediaSession,
                            __ZN29ServerMediaSubsessionIteratorD0Ev,
                            __ZN29ServerMediaSubsessionIteratorD1Ev,
                            __ZN29ServerMediaSubsessionIteratorD2Ev,
                            __ZN30MPEG4VideoStreamDiscreteFramer14doGetNextFrameEv,
                            __ZN30MPEG4VideoStreamDiscreteFramer15getNextFrameBitERh,
                            __ZN30MPEG4VideoStreamDiscreteFramer16analyzeVOLHeaderEv,
                            __ZN30MPEG4VideoStreamDiscreteFramer16getNextFrameBitsEjRj,
                            __ZN30MPEG4VideoStreamDiscreteFramer17afterGettingFrameEPvjj7timevalj,
                            __ZN30MPEG4VideoStreamDiscreteFramer18afterGettingFrame1Ejj7timevalj,
                            __ZN30MPEG4VideoStreamDiscreteFramer9createNewER16UsageEnvironmentP12FramedSourceh,
                            __ZN30MPEG4VideoStreamDiscreteFramerC1ER16UsageEnvironmentP12FramedSourceh,
                            __ZN30MPEG4VideoStreamDiscreteFramerC2ER16UsageEnvironmentP12FramedSourceh,
                            __ZN30MPEG4VideoStreamDiscreteFramerD0Ev,
                            __ZN30MPEG4VideoStreamDiscreteFramerD1Ev,
                            __ZN30MPEG4VideoStreamDiscreteFramerD2Ev,
                            __ZN30QTGenericBufferedPacketFactory15createNewPacketEP20MultiFramedRTPSource,
                            __ZN30RTSPRegisterOrDeregisterSender36RequestRecord_REGISTER_or_DEREGISTERC1EjPKcPFvP10RTSPClientiPcES2_S2_,
                            __ZN30RTSPRegisterOrDeregisterSender36RequestRecord_REGISTER_or_DEREGISTERC2EjPKcPFvP10RTSPClientiPcES2_S2_,
                            __ZN30RTSPRegisterOrDeregisterSender36RequestRecord_REGISTER_or_DEREGISTERD0Ev,
                            __ZN30RTSPRegisterOrDeregisterSender36RequestRecord_REGISTER_or_DEREGISTERD1Ev,
                            __ZN30RTSPRegisterOrDeregisterSender36RequestRecord_REGISTER_or_DEREGISTERD2Ev,
                            __ZN30RTSPRegisterOrDeregisterSenderC1ER16UsageEnvironmentPKctP13AuthenticatoriS3_,
                            __ZN30RTSPRegisterOrDeregisterSenderC2ER16UsageEnvironmentPKctP13AuthenticatoriS3_,
                            __ZN30RTSPRegisterOrDeregisterSenderD0Ev,
                            __ZN30RTSPRegisterOrDeregisterSenderD1Ev,
                            __ZN30RTSPRegisterOrDeregisterSenderD2Ev,
                            __ZN30RTSPServerWithREGISTERProxying19allowedCommandNamesEv,
                            __ZN30RTSPServerWithREGISTERProxying19weImplementREGISTEREPKcS1_RPc,
                            __ZN30RTSPServerWithREGISTERProxying21implementCmd_REGISTEREPKcS1_S1_ihS1_,
                            __ZN30RTSPServerWithREGISTERProxying35getAuthenticationDatabaseForCommandEPKc,
                            __ZN30RTSPServerWithREGISTERProxying9createNewER16UsageEnvironment4PortP26UserAuthenticationDatabaseS4_jhi,
                            __ZN30RTSPServerWithREGISTERProxyingC1ER16UsageEnvironmenti4PortP26UserAuthenticationDatabaseS4_jhi,
                            __ZN30RTSPServerWithREGISTERProxyingC2ER16UsageEnvironmenti4PortP26UserAuthenticationDatabaseS4_jhi,
                            __ZN30RTSPServerWithREGISTERProxyingD0Ev,
                            __ZN30RTSPServerWithREGISTERProxyingD1Ev,
                            __ZN30RTSPServerWithREGISTERProxyingD2Ev,
                            __ZN31HandlerServerForREGISTERCommand19allowedCommandNamesEv,
                            __ZN31HandlerServerForREGISTERCommand19createNewRTSPClientEPKciS1_i,
                            __ZN31HandlerServerForREGISTERCommand19weImplementREGISTEREPKcS1_RPc,
                            __ZN31HandlerServerForREGISTERCommand21implementCmd_REGISTEREPKcS1_S1_ihS1_,
                            __ZN31HandlerServerForREGISTERCommand9createNewER16UsageEnvironmentPFvP10RTSPClienthE4PortP26UserAuthenticationDatabaseiPKc,
                            __ZN31HandlerServerForREGISTERCommandC1ER16UsageEnvironmentPFvP10RTSPClienthEi4PortP26UserAuthenticationDatabaseiPKc,
                            __ZN31HandlerServerForREGISTERCommandC2ER16UsageEnvironmentPFvP10RTSPClienthEi4PortP26UserAuthenticationDatabaseiPKc,
                            __ZN31HandlerServerForREGISTERCommandD0Ev,
                            __ZN31HandlerServerForREGISTERCommandD1Ev,
                            __ZN31HandlerServerForREGISTERCommandD2Ev,
                            __ZN32H264or5VideoStreamDiscreteFramer14doGetNextFrameEv,
                            __ZN32H264or5VideoStreamDiscreteFramer17afterGettingFrameEPvjj7timevalj,
                            __ZN32H264or5VideoStreamDiscreteFramer18afterGettingFrame1Ejj7timevalj,
                            __ZN32H264or5VideoStreamDiscreteFramer21nalUnitEndsAccessUnitEh,
                            __ZN32H264or5VideoStreamDiscreteFramerC1EiR16UsageEnvironmentP12FramedSource,
                            __ZN32H264or5VideoStreamDiscreteFramerC2EiR16UsageEnvironmentP12FramedSource,
                            __ZN32H264or5VideoStreamDiscreteFramerD0Ev,
                            __ZN32H264or5VideoStreamDiscreteFramerD1Ev,
                            __ZN32H264or5VideoStreamDiscreteFramerD2Ev,
                            __ZN33MPEG1or2VideoStreamDiscreteFramer14doGetNextFrameEv,
                            __ZN33MPEG1or2VideoStreamDiscreteFramer17afterGettingFrameEPvjj7timevalj,
                            __ZN33MPEG1or2VideoStreamDiscreteFramer18afterGettingFrame1Ejj7timevalj,
                            __ZN33MPEG1or2VideoStreamDiscreteFramer9createNewER16UsageEnvironmentP12FramedSourcehdh,
                            __ZN33MPEG1or2VideoStreamDiscreteFramerC1ER16UsageEnvironmentP12FramedSourcehdh,
                            __ZN33MPEG1or2VideoStreamDiscreteFramerC2ER16UsageEnvironmentP12FramedSourcehdh,
                            __ZN33MPEG1or2VideoStreamDiscreteFramerD0Ev,
                            __ZN33MPEG1or2VideoStreamDiscreteFramerD1Ev,
                            __ZN33MPEG1or2VideoStreamDiscreteFramerD2Ev,
                            __ZN33MPEG4GenericBufferedPacketFactory15createNewPacketEP20MultiFramedRTPSource,
                            __ZN33PresentationTimeSessionNormalizer25normalizePresentationTimeEP36PresentationTimeSubsessionNormalizerR7timevalRKS2_,
                            __ZN33PresentationTimeSessionNormalizer42removePresentationTimeSubsessionNormalizerEP36PresentationTimeSubsessionNormalizer,
                            __ZN33PresentationTimeSessionNormalizer45createNewPresentationTimeSubsessionNormalizerEP12FramedSourceP9RTPSourcePKc,
                            __ZN33PresentationTimeSessionNormalizerC1ER16UsageEnvironment,
                            __ZN33PresentationTimeSessionNormalizerC2ER16UsageEnvironment,
                            __ZN33PresentationTimeSessionNormalizerD0Ev,
                            __ZN33PresentationTimeSessionNormalizerD1Ev,
                            __ZN33PresentationTimeSessionNormalizerD2Ev,
                            __ZN36PresentationTimeSubsessionNormalizer14doGetNextFrameEv,
                            __ZN36PresentationTimeSubsessionNormalizer17afterGettingFrameEPvjj7timevalj,
                            __ZN36PresentationTimeSubsessionNormalizer17afterGettingFrameEjj7timevalj,
                            __ZN36PresentationTimeSubsessionNormalizerC1ER33PresentationTimeSessionNormalizerP12FramedSourceP9RTPSourcePKcPS_,
                            __ZN36PresentationTimeSubsessionNormalizerC2ER33PresentationTimeSessionNormalizerP12FramedSourceP9RTPSourcePKcPS_,
                            __ZN36PresentationTimeSubsessionNormalizerD0Ev,
                            __ZN36PresentationTimeSubsessionNormalizerD1Ev,
                            __ZN36PresentationTimeSubsessionNormalizerD2Ev,
                            __ZN4PortC1Et, __ZN4PortC2Et,
                            __ZN6LocaleC1EPKc14LocaleCategory,
                            __ZN6LocaleC2EPKc14LocaleCategory, __ZN6LocaleD0Ev,
                            __ZN6LocaleD1Ev, __ZN6LocaleD2Ev,
                            __ZN6Medium12lookupByNameER16UsageEnvironmentPKcRPS_,
                            __ZN6Medium5closeEPS_,
                            __ZN6Medium5closeER16UsageEnvironmentPKc,
                            __ZN6MediumC1ER16UsageEnvironment,
                            __ZN6MediumC2ER16UsageEnvironment, __ZN6MediumD0Ev,
                            __ZN6MediumD1Ev, __ZN6MediumD2Ev,
                            __ZN6Socket10DebugLevelE,
                            __ZN6Socket10changePortE4Port, __ZN6Socket5resetEv,
                            __ZN6SocketC2ER16UsageEnvironment4Port,
                            __ZN6SocketD0Ev, __ZN6SocketD1Ev, __ZN6SocketD2Ev,
                            __ZN6TagLib10ByteVector10fromBase64ERKS0_,
                            __ZN6TagLib10ByteVector11fromCStringEPKcj,
                            __ZN6TagLib10ByteVector12fromLongLongExb,
                            __ZN6TagLib10ByteVector13fromFloat32BEEf,
                            __ZN6TagLib10ByteVector13fromFloat32LEEf,
                            __ZN6TagLib10ByteVector13fromFloat64BEEd,
                            __ZN6TagLib10ByteVector13fromFloat64LEEd,
                            __ZN6TagLib10ByteVector3endEv,
                            __ZN6TagLib10ByteVector4dataEv,
                            __ZN6TagLib10ByteVector4nullE,
                            __ZN6TagLib10ByteVector4rendEv,
                            __ZN6TagLib10ByteVector4swapERS0_,
                            __ZN6TagLib10ByteVector5beginEv,
                            __ZN6TagLib10ByteVector5clearEv,
                            __ZN6TagLib10ByteVector6appendERKS0_,
                            __ZN6TagLib10ByteVector6appendEc,
                            __ZN6TagLib10ByteVector6detachEv,
                            __ZN6TagLib10ByteVector6rbeginEv,
                            __ZN6TagLib10ByteVector6resizeEjc,
                            __ZN6TagLib10ByteVector7replaceERKS0_S2_,
                            __ZN6TagLib10ByteVector7replaceEcc,
                            __ZN6TagLib10ByteVector7setDataEPKc,
                            __ZN6TagLib10ByteVector7setDataEPKcj,
                            __ZN6TagLib10ByteVector8fromUIntEjb,
                            __ZN6TagLib10ByteVector9fromShortEsb,
                            __ZN6TagLib10ByteVectorC1EPKc,
                            __ZN6TagLib10ByteVectorC1EPKcj,
                            __ZN6TagLib10ByteVectorC1ERKS0_,
                            __ZN6TagLib10ByteVectorC1ERKS0_jj,
                            __ZN6TagLib10ByteVectorC1Ec,
                            __ZN6TagLib10ByteVectorC1Ejc,
                            __ZN6TagLib10ByteVectorC1Ev,
                            __ZN6TagLib10ByteVectorC2EPKc,
                            __ZN6TagLib10ByteVectorC2EPKcj,
                            __ZN6TagLib10ByteVectorC2ERKS0_,
                            __ZN6TagLib10ByteVectorC2ERKS0_jj,
                            __ZN6TagLib10ByteVectorC2Ec,
                            __ZN6TagLib10ByteVectorC2Ejc,
                            __ZN6TagLib10ByteVectorC2Ev,
                            __ZN6TagLib10ByteVectorD0Ev,
                            __ZN6TagLib10ByteVectorD1Ev,
                            __ZN6TagLib10ByteVectorD2Ev,
                            __ZN6TagLib10ByteVectoraSEPKc,
                            __ZN6TagLib10ByteVectoraSERKS0_,
                            __ZN6TagLib10ByteVectoraSEc,
                            __ZN6TagLib10ByteVectorixEi,
                            __ZN6TagLib10FileStream10bufferSizeEv,
                            __ZN6TagLib10FileStream10writeBlockERKNS_10ByteVectorE,
                            __ZN6TagLib10FileStream11removeBlockEmm,
                            __ZN6TagLib10FileStream4seekElNS_8IOStream8PositionE,
                            __ZN6TagLib10FileStream5clearEv,
                            __ZN6TagLib10FileStream6insertERKNS_10ByteVectorEmm,
                            __ZN6TagLib10FileStream6lengthEv,
                            __ZN6TagLib10FileStream8truncateEl,
                            __ZN6TagLib10FileStream9readBlockEm,
                            __ZN6TagLib10FileStreamC1EPKcb,
                            __ZN6TagLib10FileStreamC2EPKcb,
                            __ZN6TagLib10FileStreamD0Ev,
                            __ZN6TagLib10FileStreamD1Ev,
                            __ZN6TagLib10FileStreamD2Ev,
                            __ZN6TagLib10RefCounter3refEv,
                            __ZN6TagLib10RefCounter5derefEv,
                            __ZN6TagLib10RefCounterC1Ev,
                            __ZN6TagLib10RefCounterC2Ev,
                            __ZN6TagLib10RefCounterD0Ev,
                            __ZN6TagLib10RefCounterD1Ev,
                            __ZN6TagLib10RefCounterD2Ev,
                            __ZN6TagLib10StringList5splitERKNS_6StringES3_,
                            __ZN6TagLib10StringList6appendERKNS_6StringE,
                            __ZN6TagLib10StringList6appendERKS0_,
                            __ZN6TagLib10StringListC1ERKNS_14ByteVectorListENS_6String4TypeE,
                            __ZN6TagLib10StringListC1ERKNS_6StringE,
                            __ZN6TagLib10StringListC1ERKS0_,
                            __ZN6TagLib10StringListC1Ev,
                            __ZN6TagLib10StringListC2ERKNS_14ByteVectorListENS_6String4TypeE,
                            __ZN6TagLib10StringListC2ERKNS_6StringE,
                            __ZN6TagLib10StringListC2ERKS0_,
                            __ZN6TagLib10StringListC2Ev,
                            __ZN6TagLib10StringListD0Ev,
                            __ZN6TagLib10StringListD1Ev,
                            __ZN6TagLib10StringListD2Ev,
                            __ZN6TagLib11PropertyMap11removeEmptyEv,
                            __ZN6TagLib11PropertyMap15unsupportedDataEv,
                            __ZN6TagLib11PropertyMap4findERKNS_6StringE,
                            __ZN6TagLib11PropertyMap5eraseERKNS_6StringE,
                            __ZN6TagLib11PropertyMap5eraseERKS0_,
                            __ZN6TagLib11PropertyMap5mergeERKS0_,
                            __ZN6TagLib11PropertyMap6insertERKNS_6StringERKNS_10StringListE,
                            __ZN6TagLib11PropertyMap7replaceERKNS_6StringERKNS_10StringListE,
                            __ZN6TagLib11PropertyMapC1ERKNS_3MapINS_6StringENS_10StringListEEE,
                            __ZN6TagLib11PropertyMapC1ERKS0_,
                            __ZN6TagLib11PropertyMapC1Ev,
                            __ZN6TagLib11PropertyMapC2ERKNS_3MapINS_6StringENS_10StringListEEE,
                            __ZN6TagLib11PropertyMapC2ERKS0_,
                            __ZN6TagLib11PropertyMapC2Ev,
                            __ZN6TagLib11PropertyMapD0Ev,
                            __ZN6TagLib11PropertyMapD1Ev,
                            __ZN6TagLib11PropertyMapD2Ev,
                            __ZN6TagLib11PropertyMapixERKNS_6StringE,
                            __ZN6TagLib14ByteVectorList5splitERKNS_10ByteVectorES3_i,
                            __ZN6TagLib14ByteVectorList5splitERKNS_10ByteVectorES3_ii,
                            __ZN6TagLib14ByteVectorListC1ERKS0_,
                            __ZN6TagLib14ByteVectorListC1Ev,
                            __ZN6TagLib14ByteVectorListC2ERKS0_,
                            __ZN6TagLib14ByteVectorListC2Ev,
                            __ZN6TagLib14ByteVectorListD0Ev,
                            __ZN6TagLib14ByteVectorListD1Ev,
                            __ZN6TagLib14ByteVectorListD2Ev,
                            __ZN6TagLib15AudioPropertiesC2ENS0_9ReadStyleE,
                            __ZN6TagLib15AudioPropertiesD0Ev,
                            __ZN6TagLib15AudioPropertiesD1Ev,
                            __ZN6TagLib15AudioPropertiesD2Ev,
                            __ZN6TagLib2IT10Properties10setSpecialEt,
                            __ZN6TagLib2IT10Properties10setVersionEt,
                            __ZN6TagLib2IT10Properties11setBpmSpeedEh,
                            __ZN6TagLib2IT10Properties11setChannelsEi,
                            __ZN6TagLib2IT10Properties12setMixVolumeEh,
                            __ZN6TagLib2IT10Properties14setSampleCountEt,
                            __ZN6TagLib2IT10Properties15setGlobalVolumeEh,
                            __ZN6TagLib2IT10Properties15setPatternCountEt,
                            __ZN6TagLib2IT10Properties18setInstrumentCountEt,
                            __ZN6TagLib2IT10Properties18setPitchWheelDepthEh,
                            __ZN6TagLib2IT10Properties19setLengthInPatternsEt,
                            __ZN6TagLib2IT10Properties20setCompatibleVersionEt,
                            __ZN6TagLib2IT10Properties20setPanningSeparationEh,
                            __ZN6TagLib2IT10Properties8setFlagsEt,
                            __ZN6TagLib2IT10Properties8setTempoEh,
                            __ZN6TagLib2IT10PropertiesC1ENS_15AudioProperties9ReadStyleE,
                            __ZN6TagLib2IT10PropertiesC2ENS_15AudioProperties9ReadStyleE,
                            __ZN6TagLib2IT10PropertiesD0Ev,
                            __ZN6TagLib2IT10PropertiesD1Ev,
                            __ZN6TagLib2IT10PropertiesD2Ev,
                            __ZN6TagLib2IT4File13setPropertiesERKNS_11PropertyMapE,
                            __ZN6TagLib2IT4File4readEb,
                            __ZN6TagLib2IT4File4saveEv,
                            __ZN6TagLib2IT4FileC1EPKcbNS_15AudioProperties9ReadStyleE,
                            __ZN6TagLib2IT4FileC1EPNS_8IOStreamEbNS_15AudioProperties9ReadStyleE,
                            __ZN6TagLib2IT4FileC2EPKcbNS_15AudioProperties9ReadStyleE,
                            __ZN6TagLib2IT4FileC2EPNS_8IOStreamEbNS_15AudioProperties9ReadStyleE,
                            __ZN6TagLib2IT4FileD0Ev, __ZN6TagLib2IT4FileD1Ev,
                            __ZN6TagLib2IT4FileD2Ev,
                            __ZN6TagLib2XM10Properties10setVersionEt,
                            __ZN6TagLib2XM10Properties11setBpmSpeedEt,
                            __ZN6TagLib2XM10Properties11setChannelsEi,
                            __ZN6TagLib2XM10Properties14setSampleCountEj,
                            __ZN6TagLib2XM10Properties15setPatternCountEt,
                            __ZN6TagLib2XM10Properties18setInstrumentCountEt,
                            __ZN6TagLib2XM10Properties18setRestartPositionEt,
                            __ZN6TagLib2XM10Properties19setLengthInPatternsEt,
                            __ZN6TagLib2XM10Properties8setFlagsEt,
                            __ZN6TagLib2XM10Properties8setTempoEt,
                            __ZN6TagLib2XM10PropertiesC1ENS_15AudioProperties9ReadStyleE,
                            __ZN6TagLib2XM10PropertiesC2ENS_15AudioProperties9ReadStyleE,
                            __ZN6TagLib2XM10PropertiesD0Ev,
                            __ZN6TagLib2XM10PropertiesD1Ev,
                            __ZN6TagLib2XM10PropertiesD2Ev,
                            __ZN6TagLib2XM4File13setPropertiesERKNS_11PropertyMapE,
                            __ZN6TagLib2XM4File4readEb,
                            __ZN6TagLib2XM4File4saveEv,
                            __ZN6TagLib2XM4FileC1EPKcbNS_15AudioProperties9ReadStyleE,
                            __ZN6TagLib2XM4FileC1EPNS_8IOStreamEbNS_15AudioProperties9ReadStyleE,
                            __ZN6TagLib2XM4FileC2EPKcbNS_15AudioProperties9ReadStyleE,
                            __ZN6TagLib2XM4FileC2EPNS_8IOStreamEbNS_15AudioProperties9ReadStyleE,
                            __ZN6TagLib2XM4FileD0Ev, __ZN6TagLib2XM4FileD1Ev,
                            __ZN6TagLib2XM4FileD2Ev,
                            __ZN6TagLib3APE10Properties10analyzeOldEPNS0_4FileE,
                            __ZN6TagLib3APE10Properties14analyzeCurrentEPNS0_4FileE,
                            __ZN6TagLib3APE10Properties4readEPNS0_4FileEl,
                            __ZN6TagLib3APE10PropertiesC1EPNS0_4FileENS_15AudioProperties9ReadStyleE,
                            __ZN6TagLib3APE10PropertiesC1EPNS0_4FileElNS_15AudioProperties9ReadStyleE,
                            __ZN6TagLib3APE10PropertiesC2EPNS0_4FileENS_15AudioProperties9ReadStyleE,
                            __ZN6TagLib3APE10PropertiesC2EPNS0_4FileElNS_15AudioProperties9ReadStyleE,
                            __ZN6TagLib3APE10PropertiesD0Ev,
                            __ZN6TagLib3APE10PropertiesD1Ev,
                            __ZN6TagLib3APE10PropertiesD2Ev,
                            __ZN6TagLib3APE3Tag10removeItemERKNS_6StringE,
                            __ZN6TagLib3APE3Tag10setCommentERKNS_6StringE,
                            __ZN6TagLib3APE3Tag13setPropertiesERKNS_11PropertyMapE,
                            __ZN6TagLib3APE3Tag14fileIdentifierEv,
                            __ZN6TagLib3APE3Tag27removeUnsupportedPropertiesERKNS_10StringListE,
                            __ZN6TagLib3APE3Tag4readEv,
                            __ZN6TagLib3APE3Tag5parseERKNS_10ByteVectorE,
                            __ZN6TagLib3APE3Tag7setDataERKNS_6StringERKNS_10ByteVectorE,
                            __ZN6TagLib3APE3Tag7setItemERKNS_6StringERKNS0_4ItemE,
                            __ZN6TagLib3APE3Tag7setYearEj,
                            __ZN6TagLib3APE3Tag8addValueERKNS_6StringES4_b,
                            __ZN6TagLib3APE3Tag8checkKeyERKNS_6StringE,
                            __ZN6TagLib3APE3Tag8setAlbumERKNS_6StringE,
                            __ZN6TagLib3APE3Tag8setGenreERKNS_6StringE,
                            __ZN6TagLib3APE3Tag8setTitleERKNS_6StringE,
                            __ZN6TagLib3APE3Tag8setTrackEj,
                            __ZN6TagLib3APE3Tag9setArtistERKNS_6StringE,
                            __ZN6TagLib3APE3TagC1EPNS_4FileEl,
                            __ZN6TagLib3APE3TagC1Ev,
                            __ZN6TagLib3APE3TagC2EPNS_4FileEl,
                            __ZN6TagLib3APE3TagC2Ev, __ZN6TagLib3APE3TagD0Ev,
                            __ZN6TagLib3APE3TagD1Ev, __ZN6TagLib3APE3TagD2Ev,
                            __ZN6TagLib3APE4File13setPropertiesERKNS_11PropertyMapE,
                            __ZN6TagLib3APE4File27removeUnsupportedPropertiesERKNS_10StringListE,
                            __ZN6TagLib3APE4File4readEb,
                            __ZN6TagLib3APE4File4saveEv,
                            __ZN6TagLib3APE4File5stripEi,
                            __ZN6TagLib3APE4File6APETagEb,
                            __ZN6TagLib3APE4File8ID3v1TagEb,
                            __ZN6TagLib3APE4FileC1EPKcbNS_15AudioProperties9ReadStyleE,
                            __ZN6TagLib3APE4FileC1EPNS_8IOStreamEbNS_15AudioProperties9ReadStyleE,
                            __ZN6TagLib3APE4FileC2EPKcbNS_15AudioProperties9ReadStyleE,
                            __ZN6TagLib3APE4FileC2EPNS_8IOStreamEbNS_15AudioProperties9ReadStyleE,
                            __ZN6TagLib3APE4FileD0Ev, __ZN6TagLib3APE4FileD1Ev,
                            __ZN6TagLib3APE4FileD2Ev,
                            __ZN6TagLib3APE4Item11appendValueERKNS_6StringE,
                            __ZN6TagLib3APE4Item11setReadOnlyEb,
                            __ZN6TagLib3APE4Item12appendValuesERKNS_10StringListE,
                            __ZN6TagLib3APE4Item13setBinaryDataERKNS_10ByteVectorE,
                            __ZN6TagLib3APE4Item4swapERS1_,
                            __ZN6TagLib3APE4Item5parseERKNS_10ByteVectorE,
                            __ZN6TagLib3APE4Item6setKeyERKNS_6StringE,
                            __ZN6TagLib3APE4Item7setTypeENS1_9ItemTypesE,
                            __ZN6TagLib3APE4Item8setValueERKNS_6StringE,
                            __ZN6TagLib3APE4Item9setValuesERKNS_10StringListE,
                            __ZN6TagLib3APE4ItemC1ERKNS_6StringERKNS_10ByteVectorEb,
                            __ZN6TagLib3APE4ItemC1ERKNS_6StringERKNS_10StringListE,
                            __ZN6TagLib3APE4ItemC1ERKNS_6StringES4_,
                            __ZN6TagLib3APE4ItemC1ERKS1_,
                            __ZN6TagLib3APE4ItemC1Ev,
                            __ZN6TagLib3APE4ItemC2ERKNS_6StringERKNS_10ByteVectorEb,
                            __ZN6TagLib3APE4ItemC2ERKNS_6StringERKNS_10StringListE,
                            __ZN6TagLib3APE4ItemC2ERKNS_6StringES4_,
                            __ZN6TagLib3APE4ItemC2ERKS1_,
                            __ZN6TagLib3APE4ItemC2Ev, __ZN6TagLib3APE4ItemD0Ev,
                            __ZN6TagLib3APE4ItemD1Ev, __ZN6TagLib3APE4ItemD2Ev,
                            __ZN6TagLib3APE4ItemaSERKS1_,
                            __ZN6TagLib3APE6Footer10setTagSizeEj,
                            __ZN6TagLib3APE6Footer12setItemCountEj,
                            __ZN6TagLib3APE6Footer14fileIdentifierEv,
                            __ZN6TagLib3APE6Footer4sizeEv,
                            __ZN6TagLib3APE6Footer5parseERKNS_10ByteVectorE,
                            __ZN6TagLib3APE6Footer7setDataERKNS_10ByteVectorE,
                            __ZN6TagLib3APE6FooterC1ERKNS_10ByteVectorE,
                            __ZN6TagLib3APE6FooterC1Ev,
                            __ZN6TagLib3APE6FooterC2ERKNS_10ByteVectorE,
                            __ZN6TagLib3APE6FooterC2Ev,
                            __ZN6TagLib3APE6FooterD0Ev,
                            __ZN6TagLib3APE6FooterD1Ev,
                            __ZN6TagLib3APE6FooterD2Ev,
                            __ZN6TagLib3ASF10Properties10setBitrateEi,
                            __ZN6TagLib3ASF10Properties11setChannelsEi,
                            __ZN6TagLib3ASF10Properties12setCodecNameERKNS_6StringE,
                            __ZN6TagLib3ASF10Properties12setEncryptedEb,
                            __ZN6TagLib3ASF10Properties13setSampleRateEi,
                            __ZN6TagLib3ASF10Properties16setBitsPerSampleEi,
                            __ZN6TagLib3ASF10Properties19setCodecDescriptionERKNS_6StringE,
                            __ZN6TagLib3ASF10Properties23setLengthInMillisecondsEi,
                            __ZN6TagLib3ASF10Properties8setCodecEi,
                            __ZN6TagLib3ASF10Properties9setLengthEi,
                            __ZN6TagLib3ASF10PropertiesC1Ev,
                            __ZN6TagLib3ASF10PropertiesC2Ev,
                            __ZN6TagLib3ASF10PropertiesD0Ev,
                            __ZN6TagLib3ASF10PropertiesD1Ev,
                            __ZN6TagLib3ASF10PropertiesD2Ev,
                            __ZN6TagLib3ASF3Tag10removeItemERKNS_6StringE,
                            __ZN6TagLib3ASF3Tag10setCommentERKNS_6StringE,
                            __ZN6TagLib3ASF3Tag12addAttributeERKNS_6StringERKNS0_9AttributeE,
                            __ZN6TagLib3ASF3Tag12setAttributeERKNS_6StringERKNS0_9AttributeE,
                            __ZN6TagLib3ASF3Tag12setAttributeERKNS_6StringERKNS_4ListINS0_9AttributeEEE,
                            __ZN6TagLib3ASF3Tag12setCopyrightERKNS_6StringE,
                            __ZN6TagLib3ASF3Tag13setPropertiesERKNS_11PropertyMapE,
                            __ZN6TagLib3ASF3Tag16attributeListMapEv,
                            __ZN6TagLib3ASF3Tag27removeUnsupportedPropertiesERKNS_10StringListE,
                            __ZN6TagLib3ASF3Tag7setYearEj,
                            __ZN6TagLib3ASF3Tag8setAlbumERKNS_6StringE,
                            __ZN6TagLib3ASF3Tag8setGenreERKNS_6StringE,
                            __ZN6TagLib3ASF3Tag8setTitleERKNS_6StringE,
                            __ZN6TagLib3ASF3Tag8setTrackEj,
                            __ZN6TagLib3ASF3Tag9setArtistERKNS_6StringE,
                            __ZN6TagLib3ASF3Tag9setRatingERKNS_6StringE,
                            __ZN6TagLib3ASF3TagC1Ev, __ZN6TagLib3ASF3TagC2Ev,
                            __ZN6TagLib3ASF3TagD0Ev, __ZN6TagLib3ASF3TagD1Ev,
                            __ZN6TagLib3ASF3TagD2Ev,
                            __ZN6TagLib3ASF4File11FilePrivate10BaseObject5parseEPS1_j,
                            __ZN6TagLib3ASF4File11FilePrivate10BaseObject6renderEPS1_,
                            __ZN6TagLib3ASF4File11FilePrivate13UnknownObjectC1ERKNS_10ByteVectorE,
                            __ZN6TagLib3ASF4File11FilePrivate13UnknownObjectC2ERKNS_10ByteVectorE,
                            __ZN6TagLib3ASF4File11FilePrivate14MetadataObject5parseEPS1_j,
                            __ZN6TagLib3ASF4File11FilePrivate14MetadataObject6renderEPS1_,
                            __ZN6TagLib3ASF4File11FilePrivate15CodecListObject5parseEPS1_j,
                            __ZN6TagLib3ASF4File11FilePrivate20FilePropertiesObject5parseEPS1_j,
                            __ZN6TagLib3ASF4File11FilePrivate21HeaderExtensionObject5parseEPS1_j,
                            __ZN6TagLib3ASF4File11FilePrivate21HeaderExtensionObject6renderEPS1_,
                            __ZN6TagLib3ASF4File11FilePrivate21HeaderExtensionObjectC1Ev,
                            __ZN6TagLib3ASF4File11FilePrivate21HeaderExtensionObjectC2Ev,
                            __ZN6TagLib3ASF4File11FilePrivate21MetadataLibraryObject5parseEPS1_j,
                            __ZN6TagLib3ASF4File11FilePrivate21MetadataLibraryObject6renderEPS1_,
                            __ZN6TagLib3ASF4File11FilePrivate22StreamPropertiesObject5parseEPS1_j,
                            __ZN6TagLib3ASF4File11FilePrivate24ContentDescriptionObject5parseEPS1_j,
                            __ZN6TagLib3ASF4File11FilePrivate24ContentDescriptionObject6renderEPS1_,
                            __ZN6TagLib3ASF4File11FilePrivate32ExtendedContentDescriptionObject5parseEPS1_j,
                            __ZN6TagLib3ASF4File11FilePrivate32ExtendedContentDescriptionObject6renderEPS1_,
                            __ZN6TagLib3ASF4File13setPropertiesERKNS_11PropertyMapE,
                            __ZN6TagLib3ASF4File27removeUnsupportedPropertiesERKNS_10StringListE,
                            __ZN6TagLib3ASF4File4readEv,
                            __ZN6TagLib3ASF4File4saveEv,
                            __ZN6TagLib3ASF4FileC1EPKcbNS_15AudioProperties9ReadStyleE,
                            __ZN6TagLib3ASF4FileC1EPNS_8IOStreamEbNS_15AudioProperties9ReadStyleE,
                            __ZN6TagLib3ASF4FileC2EPKcbNS_15AudioProperties9ReadStyleE,
                            __ZN6TagLib3ASF4FileC2EPNS_8IOStreamEbNS_15AudioProperties9ReadStyleE,
                            __ZN6TagLib3ASF4FileD0Ev, __ZN6TagLib3ASF4FileD1Ev,
                            __ZN6TagLib3ASF4FileD2Ev,
                            __ZN6TagLib3ASF7Picture10setPictureERKNS_10ByteVectorE,
                            __ZN6TagLib3ASF7Picture11fromInvalidEv,
                            __ZN6TagLib3ASF7Picture11setMimeTypeERKNS_6StringE,
                            __ZN6TagLib3ASF7Picture14setDescriptionERKNS_6StringE,
                            __ZN6TagLib3ASF7Picture4swapERS1_,
                            __ZN6TagLib3ASF7Picture5parseERKNS_10ByteVectorE,
                            __ZN6TagLib3ASF7Picture7setTypeERKNS1_4TypeE,
                            __ZN6TagLib3ASF7PictureC1ERKS1_,
                            __ZN6TagLib3ASF7PictureC1Ev,
                            __ZN6TagLib3ASF7PictureC2ERKS1_,
                            __ZN6TagLib3ASF7PictureC2Ev,
                            __ZN6TagLib3ASF7PictureD0Ev,
                            __ZN6TagLib3ASF7PictureD1Ev,
                            __ZN6TagLib3ASF7PictureD2Ev,
                            __ZN6TagLib3ASF7PictureaSERKS1_,
                            __ZN6TagLib3ASF9Attribute11setLanguageEi,
                            __ZN6TagLib3ASF9Attribute4swapERS1_,
                            __ZN6TagLib3ASF9Attribute5parseERNS0_4FileEi,
                            __ZN6TagLib3ASF9Attribute9setStreamEi,
                            __ZN6TagLib3ASF9AttributeC1ERKNS0_7PictureE,
                            __ZN6TagLib3ASF9AttributeC1ERKNS_10ByteVectorE,
                            __ZN6TagLib3ASF9AttributeC1ERKNS_6StringE,
                            __ZN6TagLib3ASF9AttributeC1ERKS1_,
                            __ZN6TagLib3ASF9AttributeC1Eb,
                            __ZN6TagLib3ASF9AttributeC1Ej,
                            __ZN6TagLib3ASF9AttributeC1Et,
                            __ZN6TagLib3ASF9AttributeC1Ev,
                            __ZN6TagLib3ASF9AttributeC1Ey,
                            __ZN6TagLib3ASF9AttributeC2ERKNS0_7PictureE,
                            __ZN6TagLib3ASF9AttributeC2ERKNS_10ByteVectorE,
                            __ZN6TagLib3ASF9AttributeC2ERKNS_6StringE,
                            __ZN6TagLib3ASF9AttributeC2ERKS1_,
                            __ZN6TagLib3ASF9AttributeC2Eb,
                            __ZN6TagLib3ASF9AttributeC2Ej,
                            __ZN6TagLib3ASF9AttributeC2Et,
                            __ZN6TagLib3ASF9AttributeC2Ev,
                            __ZN6TagLib3ASF9AttributeC2Ey,
                            __ZN6TagLib3ASF9AttributeD0Ev,
                            __ZN6TagLib3ASF9AttributeD1Ev,
                            __ZN6TagLib3ASF9AttributeD2Ev,
                            __ZN6TagLib3ASF9AttributeaSERKS1_,
                            __ZN6TagLib3MP410Properties4readEPNS0_4FileEPNS0_5AtomsE,
                            __ZN6TagLib3MP410PropertiesC1EPNS0_4FileEPNS0_5AtomsENS_15AudioProperties9ReadStyleE,
                            __ZN6TagLib3MP410PropertiesC2EPNS0_4FileEPNS0_5AtomsENS_15AudioProperties9ReadStyleE,
                            __ZN6TagLib3MP410PropertiesD0Ev,
                            __ZN6TagLib3MP410PropertiesD1Ev,
                            __ZN6TagLib3MP410PropertiesD2Ev,
                            __ZN6TagLib3MP43Tag10parseData2EPKNS0_4AtomEib,
                            __ZN6TagLib3MP43Tag10removeItemERKNS_6StringE,
                            __ZN6TagLib3MP43Tag10setCommentERKNS_6StringE,
                            __ZN6TagLib3MP43Tag11itemListMapEv,
                            __ZN6TagLib3MP43Tag12parseIntPairEPKNS0_4AtomE,
                            __ZN6TagLib3MP43Tag12saveExistingENS_10ByteVectorERKNS_4ListIPNS0_4AtomEEE,
                            __ZN6TagLib3MP43Tag13parseFreeFormEPKNS0_4AtomE,
                            __ZN6TagLib3MP43Tag13parseLongLongEPKNS0_4AtomE,
                            __ZN6TagLib3MP43Tag13setPropertiesERKNS_11PropertyMapE,
                            __ZN6TagLib3MP43Tag13updateOffsetsEll,
                            __ZN6TagLib3MP43Tag13updateParentsERKNS_4ListIPNS0_4AtomEEEli,
                            __ZN6TagLib3MP43Tag27removeUnsupportedPropertiesERKNS_10StringListE,
                            __ZN6TagLib3MP43Tag4saveEv,
                            __ZN6TagLib3MP43Tag7addItemERKNS_6StringERKNS0_4ItemE,
                            __ZN6TagLib3MP43Tag7saveNewENS_10ByteVectorE,
                            __ZN6TagLib3MP43Tag7setItemERKNS_6StringERKNS0_4ItemE,
                            __ZN6TagLib3MP43Tag7setYearEj,
                            __ZN6TagLib3MP43Tag8parseIntEPKNS0_4AtomE,
                            __ZN6TagLib3MP43Tag8setAlbumERKNS_6StringE,
                            __ZN6TagLib3MP43Tag8setGenreERKNS_6StringE,
                            __ZN6TagLib3MP43Tag8setTitleERKNS_6StringE,
                            __ZN6TagLib3MP43Tag8setTrackEj,
                            __ZN6TagLib3MP43Tag9parseBoolEPKNS0_4AtomE,
                            __ZN6TagLib3MP43Tag9parseByteEPKNS0_4AtomE,
                            __ZN6TagLib3MP43Tag9parseCovrEPKNS0_4AtomE,
                            __ZN6TagLib3MP43Tag9parseDataEPKNS0_4AtomEib,
                            __ZN6TagLib3MP43Tag9parseGnreEPKNS0_4AtomE,
                            __ZN6TagLib3MP43Tag9parseTextEPKNS0_4AtomEi,
                            __ZN6TagLib3MP43Tag9parseUIntEPKNS0_4AtomE,
                            __ZN6TagLib3MP43Tag9setArtistERKNS_6StringE,
                            __ZN6TagLib3MP43TagC1EPNS_4FileEPNS0_5AtomsE,
                            __ZN6TagLib3MP43TagC1Ev,
                            __ZN6TagLib3MP43TagC2EPNS_4FileEPNS0_5AtomsE,
                            __ZN6TagLib3MP43TagC2Ev, __ZN6TagLib3MP43TagD0Ev,
                            __ZN6TagLib3MP43TagD1Ev, __ZN6TagLib3MP43TagD2Ev,
                            __ZN6TagLib3MP44Atom10containersE,
                            __ZN6TagLib3MP44Atom4findEPKcS3_S3_S3_,
                            __ZN6TagLib3MP44Atom4pathERNS_4ListIPS1_EEPKcS7_S7_,
                            __ZN6TagLib3MP44Atom7findallEPKcb,
                            __ZN6TagLib3MP44AtomC1EPNS_4FileE,
                            __ZN6TagLib3MP44AtomC2EPNS_4FileE,
                            __ZN6TagLib3MP44AtomD1Ev, __ZN6TagLib3MP44AtomD2Ev,
                            __ZN6TagLib3MP44File13setPropertiesERKNS_11PropertyMapE,
                            __ZN6TagLib3MP44File27removeUnsupportedPropertiesERKNS_10StringListE,
                            __ZN6TagLib3MP44File4readEb,
                            __ZN6TagLib3MP44File4saveEv,
                            __ZN6TagLib3MP44FileC1EPKcbNS_15AudioProperties9ReadStyleE,
                            __ZN6TagLib3MP44FileC1EPNS_8IOStreamEbNS_15AudioProperties9ReadStyleE,
                            __ZN6TagLib3MP44FileC2EPKcbNS_15AudioProperties9ReadStyleE,
                            __ZN6TagLib3MP44FileC2EPNS_8IOStreamEbNS_15AudioProperties9ReadStyleE,
                            __ZN6TagLib3MP44FileD0Ev, __ZN6TagLib3MP44FileD1Ev,
                            __ZN6TagLib3MP44FileD2Ev,
                            __ZN6TagLib3MP44Item15setAtomDataTypeENS0_12AtomDataTypeE,
                            __ZN6TagLib3MP44Item4swapERS1_,
                            __ZN6TagLib3MP44ItemC1ERKNS_10StringListE,
                            __ZN6TagLib3MP44ItemC1ERKNS_14ByteVectorListE,
                            __ZN6TagLib3MP44ItemC1ERKNS_4ListINS0_8CoverArtEEE,
                            __ZN6TagLib3MP44ItemC1ERKS1_,
                            __ZN6TagLib3MP44ItemC1Eb, __ZN6TagLib3MP44ItemC1Eh,
                            __ZN6TagLib3MP44ItemC1Ei, __ZN6TagLib3MP44ItemC1Eii,
                            __ZN6TagLib3MP44ItemC1Ej, __ZN6TagLib3MP44ItemC1Ev,
                            __ZN6TagLib3MP44ItemC1Ex,
                            __ZN6TagLib3MP44ItemC2ERKNS_10StringListE,
                            __ZN6TagLib3MP44ItemC2ERKNS_14ByteVectorListE,
                            __ZN6TagLib3MP44ItemC2ERKNS_4ListINS0_8CoverArtEEE,
                            __ZN6TagLib3MP44ItemC2ERKS1_,
                            __ZN6TagLib3MP44ItemC2Eb, __ZN6TagLib3MP44ItemC2Eh,
                            __ZN6TagLib3MP44ItemC2Ei, __ZN6TagLib3MP44ItemC2Eii,
                            __ZN6TagLib3MP44ItemC2Ej, __ZN6TagLib3MP44ItemC2Ev,
                            __ZN6TagLib3MP44ItemC2Ex, __ZN6TagLib3MP44ItemD1Ev,
                            __ZN6TagLib3MP44ItemD2Ev,
                            __ZN6TagLib3MP44ItemaSERKS1_,
                            __ZN6TagLib3MP45Atoms4findEPKcS3_S3_S3_,
                            __ZN6TagLib3MP45Atoms4pathEPKcS3_S3_S3_,
                            __ZN6TagLib3MP45AtomsC1EPNS_4FileE,
                            __ZN6TagLib3MP45AtomsC2EPNS_4FileE,
                            __ZN6TagLib3MP45AtomsD1Ev, __ZN6TagLib3MP45AtomsD2Ev,
                            __ZN6TagLib3MP48CoverArt4swapERS1_,
                            __ZN6TagLib3MP48CoverArtC1ENS1_6FormatERKNS_10ByteVectorE,
                            __ZN6TagLib3MP48CoverArtC1ERKS1_,
                            __ZN6TagLib3MP48CoverArtC2ENS1_6FormatERKNS_10ByteVectorE,
                            __ZN6TagLib3MP48CoverArtC2ERKS1_,
                            __ZN6TagLib3MP48CoverArtD1Ev,
                            __ZN6TagLib3MP48CoverArtD2Ev,
                            __ZN6TagLib3MP48CoverArtaSERKS1_,
                            __ZN6TagLib3MPC10Properties7readSV7ERKNS_10ByteVectorEl,
                            __ZN6TagLib3MPC10Properties7readSV8EPNS0_4FileEl,
                            __ZN6TagLib3MPC10PropertiesC1EPNS0_4FileElNS_15AudioProperties9ReadStyleE,
                            __ZN6TagLib3MPC10PropertiesC1ERKNS_10ByteVectorElNS_15AudioProperties9ReadStyleE,
                            __ZN6TagLib3MPC10PropertiesC2EPNS0_4FileElNS_15AudioProperties9ReadStyleE,
                            __ZN6TagLib3MPC10PropertiesC2ERKNS_10ByteVectorElNS_15AudioProperties9ReadStyleE,
                            __ZN6TagLib3MPC10PropertiesD0Ev,
                            __ZN6TagLib3MPC10PropertiesD1Ev,
                            __ZN6TagLib3MPC10PropertiesD2Ev,
                            __ZN6TagLib3MPC4File13setPropertiesERKNS_11PropertyMapE,
                            __ZN6TagLib3MPC4File27removeUnsupportedPropertiesERKNS_10StringListE,
                            __ZN6TagLib3MPC4File4readEb,
                            __ZN6TagLib3MPC4File4saveEv,
                            __ZN6TagLib3MPC4File5stripEi,
                            __ZN6TagLib3MPC4File6APETagEb,
                            __ZN6TagLib3MPC4File6removeEi,
                            __ZN6TagLib3MPC4File8ID3v1TagEb,
                            __ZN6TagLib3MPC4FileC1EPKcbNS_15AudioProperties9ReadStyleE,
                            __ZN6TagLib3MPC4FileC1EPNS_8IOStreamEbNS_15AudioProperties9ReadStyleE,
                            __ZN6TagLib3MPC4FileC2EPKcbNS_15AudioProperties9ReadStyleE,
                            __ZN6TagLib3MPC4FileC2EPNS_8IOStreamEbNS_15AudioProperties9ReadStyleE,
                            __ZN6TagLib3MPC4FileD0Ev, __ZN6TagLib3MPC4FileD1Ev,
                            __ZN6TagLib3MPC4FileD2Ev,
                            __ZN6TagLib3Mod10Properties11setChannelsEi,
                            __ZN6TagLib3Mod10Properties18setInstrumentCountEj,
                            __ZN6TagLib3Mod10Properties19setLengthInPatternsEh,
                            __ZN6TagLib3Mod10PropertiesC1ENS_15AudioProperties9ReadStyleE,
                            __ZN6TagLib3Mod10PropertiesC2ENS_15AudioProperties9ReadStyleE,
                            __ZN6TagLib3Mod10PropertiesD0Ev,
                            __ZN6TagLib3Mod10PropertiesD1Ev,
                            __ZN6TagLib3Mod10PropertiesD2Ev,
                            __ZN6TagLib3Mod3Tag10setCommentERKNS_6StringE,
                            __ZN6TagLib3Mod3Tag13setPropertiesERKNS_11PropertyMapE,
                            __ZN6TagLib3Mod3Tag14setTrackerNameERKNS_6StringE,
                            __ZN6TagLib3Mod3Tag7setYearEj,
                            __ZN6TagLib3Mod3Tag8setAlbumERKNS_6StringE,
                            __ZN6TagLib3Mod3Tag8setGenreERKNS_6StringE,
                            __ZN6TagLib3Mod3Tag8setTitleERKNS_6StringE,
                            __ZN6TagLib3Mod3Tag8setTrackEj,
                            __ZN6TagLib3Mod3Tag9setArtistERKNS_6StringE,
                            __ZN6TagLib3Mod3TagC1Ev, __ZN6TagLib3Mod3TagC2Ev,
                            __ZN6TagLib3Mod3TagD0Ev, __ZN6TagLib3Mod3TagD1Ev,
                            __ZN6TagLib3Mod3TagD2Ev,
                            __ZN6TagLib3Mod4File13setPropertiesERKNS_11PropertyMapE,
                            __ZN6TagLib3Mod4File4readEb,
                            __ZN6TagLib3Mod4File4saveEv,
                            __ZN6TagLib3Mod4FileC1EPKcbNS_15AudioProperties9ReadStyleE,
                            __ZN6TagLib3Mod4FileC1EPNS_8IOStreamEbNS_15AudioProperties9ReadStyleE,
                            __ZN6TagLib3Mod4FileC2EPKcbNS_15AudioProperties9ReadStyleE,
                            __ZN6TagLib3Mod4FileC2EPNS_8IOStreamEbNS_15AudioProperties9ReadStyleE,
                            __ZN6TagLib3Mod4FileD0Ev, __ZN6TagLib3Mod4FileD1Ev,
                            __ZN6TagLib3Mod4FileD2Ev,
                            __ZN6TagLib3Mod8FileBase10readStringERNS_6StringEm,
                            __ZN6TagLib3Mod8FileBase11writeStringERKNS_6StringEmc,
                            __ZN6TagLib3Mod8FileBase8readByteERh,
                            __ZN6TagLib3Mod8FileBase8readU16BERt,
                            __ZN6TagLib3Mod8FileBase8readU16LERt,
                            __ZN6TagLib3Mod8FileBase8readU32BERm,
                            __ZN6TagLib3Mod8FileBase8readU32LERm,
                            __ZN6TagLib3Mod8FileBase9writeByteEh,
                            __ZN6TagLib3Mod8FileBase9writeU16BEt,
                            __ZN6TagLib3Mod8FileBase9writeU16LEt,
                            __ZN6TagLib3Mod8FileBase9writeU32BEm,
                            __ZN6TagLib3Mod8FileBase9writeU32LEm,
                            __ZN6TagLib3Mod8FileBaseC2EPKc,
                            __ZN6TagLib3Mod8FileBaseC2EPNS_8IOStreamE,
                            __ZN6TagLib3Ogg10PageHeader14setPacketSizesERKNS_4ListIiEE,
                            __ZN6TagLib3Ogg10PageHeader19setLastPageOfStreamEb,
                            __ZN6TagLib3Ogg10PageHeader20setFirstPageOfStreamEb,
                            __ZN6TagLib3Ogg10PageHeader21setPageSequenceNumberEi,
                            __ZN6TagLib3Ogg10PageHeader21setStreamSerialNumberEj,
                            __ZN6TagLib3Ogg10PageHeader22setLastPacketCompletedEb,
                            __ZN6TagLib3Ogg10PageHeader23setFirstPacketContinuedEb,
                            __ZN6TagLib3Ogg10PageHeader27setAbsoluteGranularPositionEx,
                            __ZN6TagLib3Ogg10PageHeader4readEPNS0_4FileEl,
                            __ZN6TagLib3Ogg10PageHeaderC1EPNS0_4FileEl,
                            __ZN6TagLib3Ogg10PageHeaderC2EPNS0_4FileEl,
                            __ZN6TagLib3Ogg10PageHeaderD0Ev,
                            __ZN6TagLib3Ogg10PageHeaderD1Ev,
                            __ZN6TagLib3Ogg10PageHeaderD2Ev,
                            __ZN6TagLib3Ogg11XiphComment10addPictureEPNS_4FLAC7PictureE,
                            __ZN6TagLib3Ogg11XiphComment10setCommentERKNS_6StringE,
                            __ZN6TagLib3Ogg11XiphComment11pictureListEv,
                            __ZN6TagLib3Ogg11XiphComment11removeFieldERKNS_6StringES4_,
                            __ZN6TagLib3Ogg11XiphComment12removeFieldsERKNS_6StringE,
                            __ZN6TagLib3Ogg11XiphComment12removeFieldsERKNS_6StringES4_,
                            __ZN6TagLib3Ogg11XiphComment13removePictureEPNS_4FLAC7PictureEb,
                            __ZN6TagLib3Ogg11XiphComment13setPropertiesERKNS_11PropertyMapE,
                            __ZN6TagLib3Ogg11XiphComment15removeAllFieldsEv,
                            __ZN6TagLib3Ogg11XiphComment17removeAllPicturesEv,
                            __ZN6TagLib3Ogg11XiphComment5parseERKNS_10ByteVectorE,
                            __ZN6TagLib3Ogg11XiphComment7setYearEj,
                            __ZN6TagLib3Ogg11XiphComment8addFieldERKNS_6StringES4_b,
                            __ZN6TagLib3Ogg11XiphComment8checkKeyERKNS_6StringE,
                            __ZN6TagLib3Ogg11XiphComment8setAlbumERKNS_6StringE,
                            __ZN6TagLib3Ogg11XiphComment8setGenreERKNS_6StringE,
                            __ZN6TagLib3Ogg11XiphComment8setTitleERKNS_6StringE,
                            __ZN6TagLib3Ogg11XiphComment8setTrackEj,
                            __ZN6TagLib3Ogg11XiphComment9setArtistERKNS_6StringE,
                            __ZN6TagLib3Ogg11XiphCommentC1ERKNS_10ByteVectorE,
                            __ZN6TagLib3Ogg11XiphCommentC1Ev,
                            __ZN6TagLib3Ogg11XiphCommentC2ERKNS_10ByteVectorE,
                            __ZN6TagLib3Ogg11XiphCommentC2Ev,
                            __ZN6TagLib3Ogg11XiphCommentD0Ev,
                            __ZN6TagLib3Ogg11XiphCommentD1Ev,
                            __ZN6TagLib3Ogg11XiphCommentD2Ev,
                            __ZN6TagLib3Ogg4FLAC4File12streamLengthEv,
                            __ZN6TagLib3Ogg4FLAC4File13setPropertiesERKNS_11PropertyMapE,
                            __ZN6TagLib3Ogg4FLAC4File14streamInfoDataEv,
                            __ZN6TagLib3Ogg4FLAC4File15xiphCommentDataEv,
                            __ZN6TagLib3Ogg4FLAC4File4readEbNS_15AudioProperties9ReadStyleE,
                            __ZN6TagLib3Ogg4FLAC4File4saveEv,
                            __ZN6TagLib3Ogg4FLAC4File4scanEv,
                            __ZN6TagLib3Ogg4FLAC4FileC1EPKcbNS_15AudioProperties9ReadStyleE,
                            __ZN6TagLib3Ogg4FLAC4FileC1EPNS_8IOStreamEbNS_15AudioProperties9ReadStyleE,
                            __ZN6TagLib3Ogg4FLAC4FileC2EPKcbNS_15AudioProperties9ReadStyleE,
                            __ZN6TagLib3Ogg4FLAC4FileC2EPNS_8IOStreamEbNS_15AudioProperties9ReadStyleE,
                            __ZN6TagLib3Ogg4FLAC4FileD0Ev,
                            __ZN6TagLib3Ogg4FLAC4FileD1Ev,
                            __ZN6TagLib3Ogg4FLAC4FileD2Ev,
                            __ZN6TagLib3Ogg4File11writePacketEjRKNS_10ByteVectorE,
                            __ZN6TagLib3Ogg4File14lastPageHeaderEv,
                            __ZN6TagLib3Ogg4File15firstPageHeaderEv,
                            __ZN6TagLib3Ogg4File4saveEv,
                            __ZN6TagLib3Ogg4File6packetEj,
                            __ZN6TagLib3Ogg4File9readPagesEj,
                            __ZN6TagLib3Ogg4File9setPacketEjRKNS_10ByteVectorE,
                            __ZN6TagLib3Ogg4FileC2EPKc,
                            __ZN6TagLib3Ogg4FileC2EPNS_8IOStreamE,
                            __ZN6TagLib3Ogg4FileD0Ev, __ZN6TagLib3Ogg4FileD1Ev,
                            __ZN6TagLib3Ogg4FileD2Ev,
                            __ZN6TagLib3Ogg4Opus10Properties4readEPNS1_4FileE,
                            __ZN6TagLib3Ogg4Opus10PropertiesC1EPNS1_4FileENS_15AudioProperties9ReadStyleE,
                            __ZN6TagLib3Ogg4Opus10PropertiesC2EPNS1_4FileENS_15AudioProperties9ReadStyleE,
                            __ZN6TagLib3Ogg4Opus10PropertiesD0Ev,
                            __ZN6TagLib3Ogg4Opus10PropertiesD1Ev,
                            __ZN6TagLib3Ogg4Opus10PropertiesD2Ev,
                            __ZN6TagLib3Ogg4Opus4File13setPropertiesERKNS_11PropertyMapE,
                            __ZN6TagLib3Ogg4Opus4File4readEb,
                            __ZN6TagLib3Ogg4Opus4File4saveEv,
                            __ZN6TagLib3Ogg4Opus4FileC1EPKcbNS_15AudioProperties9ReadStyleE,
                            __ZN6TagLib3Ogg4Opus4FileC1EPNS_8IOStreamEbNS_15AudioProperties9ReadStyleE,
                            __ZN6TagLib3Ogg4Opus4FileC2EPKcbNS_15AudioProperties9ReadStyleE,
                            __ZN6TagLib3Ogg4Opus4FileC2EPNS_8IOStreamEbNS_15AudioProperties9ReadStyleE,
                            __ZN6TagLib3Ogg4Opus4FileD0Ev,
                            __ZN6TagLib3Ogg4Opus4FileD1Ev,
                            __ZN6TagLib3Ogg4Opus4FileD2Ev,
                            __ZN6TagLib3Ogg4Page19setFirstPacketIndexEi,
                            __ZN6TagLib3Ogg4Page21setPageSequenceNumberEi,
                            __ZN6TagLib3Ogg4Page32getCopyWithNewPageSequenceNumberEi,
                            __ZN6TagLib3Ogg4Page8paginateERKNS_14ByteVectorListENS1_18PaginationStrategyEjibbb,
                            __ZN6TagLib3Ogg4PageC1EPNS0_4FileEl,
                            __ZN6TagLib3Ogg4PageC1ERKNS_14ByteVectorListEjibbb,
                            __ZN6TagLib3Ogg4PageC2EPNS0_4FileEl,
                            __ZN6TagLib3Ogg4PageC2ERKNS_14ByteVectorListEjibbb,
                            __ZN6TagLib3Ogg4PageD0Ev, __ZN6TagLib3Ogg4PageD1Ev,
                            __ZN6TagLib3Ogg4PageD2Ev,
                            __ZN6TagLib3Ogg5Speex10Properties4readEPNS1_4FileE,
                            __ZN6TagLib3Ogg5Speex10PropertiesC1EPNS1_4FileENS_15AudioProperties9ReadStyleE,
                            __ZN6TagLib3Ogg5Speex10PropertiesC2EPNS1_4FileENS_15AudioProperties9ReadStyleE,
                            __ZN6TagLib3Ogg5Speex10PropertiesD0Ev,
                            __ZN6TagLib3Ogg5Speex10PropertiesD1Ev,
                            __ZN6TagLib3Ogg5Speex10PropertiesD2Ev,
                            __ZN6TagLib3Ogg5Speex4File13setPropertiesERKNS_11PropertyMapE,
                            __ZN6TagLib3Ogg5Speex4File4readEb,
                            __ZN6TagLib3Ogg5Speex4File4saveEv,
                            __ZN6TagLib3Ogg5Speex4FileC1EPKcbNS_15AudioProperties9ReadStyleE,
                            __ZN6TagLib3Ogg5Speex4FileC1EPNS_8IOStreamEbNS_15AudioProperties9ReadStyleE,
                            __ZN6TagLib3Ogg5Speex4FileC2EPKcbNS_15AudioProperties9ReadStyleE,
                            __ZN6TagLib3Ogg5Speex4FileC2EPNS_8IOStreamEbNS_15AudioProperties9ReadStyleE,
                            __ZN6TagLib3Ogg5Speex4FileD0Ev,
                            __ZN6TagLib3Ogg5Speex4FileD1Ev,
                            __ZN6TagLib3Ogg5Speex4FileD2Ev,
                            __ZN6TagLib3S3M10Properties11setBpmSpeedEh,
                            __ZN6TagLib3S3M10Properties11setChannelsEi,
                            __ZN6TagLib3S3M10Properties14setSampleCountEt,
                            __ZN6TagLib3S3M10Properties15setGlobalVolumeEh,
                            __ZN6TagLib3S3M10Properties15setMasterVolumeEh,
                            __ZN6TagLib3S3M10Properties15setPatternCountEt,
                            __ZN6TagLib3S3M10Properties17setTrackerVersionEt,
                            __ZN6TagLib3S3M10Properties19setLengthInPatternsEt,
                            __ZN6TagLib3S3M10Properties20setFileFormatVersionEt,
                            __ZN6TagLib3S3M10Properties8setFlagsEt,
                            __ZN6TagLib3S3M10Properties8setTempoEh,
                            __ZN6TagLib3S3M10Properties9setStereoEb,
                            __ZN6TagLib3S3M10PropertiesC1ENS_15AudioProperties9ReadStyleE,
                            __ZN6TagLib3S3M10PropertiesC2ENS_15AudioProperties9ReadStyleE,
                            __ZN6TagLib3S3M10PropertiesD0Ev,
                            __ZN6TagLib3S3M10PropertiesD1Ev,
                            __ZN6TagLib3S3M10PropertiesD2Ev,
                            __ZN6TagLib3S3M4File13setPropertiesERKNS_11PropertyMapE,
                            __ZN6TagLib3S3M4File4readEb,
                            __ZN6TagLib3S3M4File4saveEv,
                            __ZN6TagLib3S3M4FileC1EPKcbNS_15AudioProperties9ReadStyleE,
                            __ZN6TagLib3S3M4FileC1EPNS_8IOStreamEbNS_15AudioProperties9ReadStyleE,
                            __ZN6TagLib3S3M4FileC2EPKcbNS_15AudioProperties9ReadStyleE,
                            __ZN6TagLib3S3M4FileC2EPNS_8IOStreamEbNS_15AudioProperties9ReadStyleE,
                            __ZN6TagLib3S3M4FileD0Ev, __ZN6TagLib3S3M4FileD1Ev,
                            __ZN6TagLib3S3M4FileD2Ev,
                            __ZN6TagLib3Tag13setPropertiesERKNS_11PropertyMapE,
                            __ZN6TagLib3Tag27removeUnsupportedPropertiesERKNS_10StringListE,
                            __ZN6TagLib3Tag9duplicateEPKS0_PS0_b,
                            __ZN6TagLib3TagC2Ev, __ZN6TagLib3TagD0Ev,
                            __ZN6TagLib3TagD1Ev, __ZN6TagLib3TagD2Ev,
                            __ZN6TagLib4FLAC10Properties4readERKNS_10ByteVectorEl,
                            __ZN6TagLib4FLAC10PropertiesC1ENS_10ByteVectorElNS_15AudioProperties9ReadStyleE,
                            __ZN6TagLib4FLAC10PropertiesC1EPNS0_4FileENS_15AudioProperties9ReadStyleE,
                            __ZN6TagLib4FLAC10PropertiesC2ENS_10ByteVectorElNS_15AudioProperties9ReadStyleE,
                            __ZN6TagLib4FLAC10PropertiesC2EPNS0_4FileENS_15AudioProperties9ReadStyleE,
                            __ZN6TagLib4FLAC10PropertiesD0Ev,
                            __ZN6TagLib4FLAC10PropertiesD1Ev,
                            __ZN6TagLib4FLAC10PropertiesD2Ev,
                            __ZN6TagLib4FLAC13MetadataBlockC2Ev,
                            __ZN6TagLib4FLAC13MetadataBlockD0Ev,
                            __ZN6TagLib4FLAC13MetadataBlockD1Ev,
                            __ZN6TagLib4FLAC13MetadataBlockD2Ev,
                            __ZN6TagLib4FLAC20UnknownMetadataBlock7setCodeEi,
                            __ZN6TagLib4FLAC20UnknownMetadataBlock7setDataERKNS_10ByteVectorE,
                            __ZN6TagLib4FLAC20UnknownMetadataBlockC1EiRKNS_10ByteVectorE,
                            __ZN6TagLib4FLAC20UnknownMetadataBlockC2EiRKNS_10ByteVectorE,
                            __ZN6TagLib4FLAC20UnknownMetadataBlockD0Ev,
                            __ZN6TagLib4FLAC20UnknownMetadataBlockD1Ev,
                            __ZN6TagLib4FLAC20UnknownMetadataBlockD2Ev,
                            __ZN6TagLib4FLAC4File10addPictureEPNS0_7PictureE,
                            __ZN6TagLib4FLAC4File11pictureListEv,
                            __ZN6TagLib4FLAC4File11xiphCommentEb,
                            __ZN6TagLib4FLAC4File12streamLengthEv,
                            __ZN6TagLib4FLAC4File13removePictureEPNS0_7PictureEb,
                            __ZN6TagLib4FLAC4File13setPropertiesERKNS_11PropertyMapE,
                            __ZN6TagLib4FLAC4File14removePicturesEv,
                            __ZN6TagLib4FLAC4File14streamInfoDataEv,
                            __ZN6TagLib4FLAC4File20setID3v2FrameFactoryEPKNS_5ID3v212FrameFactoryE,
                            __ZN6TagLib4FLAC4File27removeUnsupportedPropertiesERKNS_10StringListE,
                            __ZN6TagLib4FLAC4File4readEb,
                            __ZN6TagLib4FLAC4File4saveEv,
                            __ZN6TagLib4FLAC4File4scanEv,
                            __ZN6TagLib4FLAC4File5stripEi,
                            __ZN6TagLib4FLAC4File8ID3v1TagEb,
                            __ZN6TagLib4FLAC4File8ID3v2TagEb,
                            __ZN6TagLib4FLAC4FileC1EPKcPNS_5ID3v212FrameFactoryEbNS_15AudioProperties9ReadStyleE,
                            __ZN6TagLib4FLAC4FileC1EPKcbNS_15AudioProperties9ReadStyleE,
                            __ZN6TagLib4FLAC4FileC1EPNS_8IOStreamEPNS_5ID3v212FrameFactoryEbNS_15AudioProperties9ReadStyleE,
                            __ZN6TagLib4FLAC4FileC2EPKcPNS_5ID3v212FrameFactoryEbNS_15AudioProperties9ReadStyleE,
                            __ZN6TagLib4FLAC4FileC2EPKcbNS_15AudioProperties9ReadStyleE,
                            __ZN6TagLib4FLAC4FileC2EPNS_8IOStreamEPNS_5ID3v212FrameFactoryEbNS_15AudioProperties9ReadStyleE,
                            __ZN6TagLib4FLAC4FileD0Ev, __ZN6TagLib4FLAC4FileD1Ev,
                            __ZN6TagLib4FLAC4FileD2Ev,
                            __ZN6TagLib4FLAC7Picture11setMimeTypeERKNS_6StringE,
                            __ZN6TagLib4FLAC7Picture12setNumColorsEi,
                            __ZN6TagLib4FLAC7Picture13setColorDepthEi,
                            __ZN6TagLib4FLAC7Picture14setDescriptionERKNS_6StringE,
                            __ZN6TagLib4FLAC7Picture5parseERKNS_10ByteVectorE,
                            __ZN6TagLib4FLAC7Picture7setDataERKNS_10ByteVectorE,
                            __ZN6TagLib4FLAC7Picture7setTypeENS1_4TypeE,
                            __ZN6TagLib4FLAC7Picture8setWidthEi,
                            __ZN6TagLib4FLAC7Picture9setHeightEi,
                            __ZN6TagLib4FLAC7PictureC1ERKNS_10ByteVectorE,
                            __ZN6TagLib4FLAC7PictureC1Ev,
                            __ZN6TagLib4FLAC7PictureC2ERKNS_10ByteVectorE,
                            __ZN6TagLib4FLAC7PictureC2Ev,
                            __ZN6TagLib4FLAC7PictureD0Ev,
                            __ZN6TagLib4FLAC7PictureD1Ev,
                            __ZN6TagLib4FLAC7PictureD2Ev,
                            __ZN6TagLib4File10bufferSizeEv,
                            __ZN6TagLib4File10isReadableEPKc,
                            __ZN6TagLib4File10isWritableEPKc,
                            __ZN6TagLib4File10writeBlockERKNS_10ByteVectorE,
                            __ZN6TagLib4File11FilePrivateC1EPNS_8IOStreamEb,
                            __ZN6TagLib4File11FilePrivateC2EPNS_8IOStreamEb,
                            __ZN6TagLib4File11removeBlockEmm,
                            __ZN6TagLib4File13setPropertiesERKNS_11PropertyMapE,
                            __ZN6TagLib4File27removeUnsupportedPropertiesERKNS_10StringListE,
                            __ZN6TagLib4File4findERKNS_10ByteVectorElS3_,
                            __ZN6TagLib4File4seekElNS0_8PositionE,
                            __ZN6TagLib4File5clearEv,
                            __ZN6TagLib4File5rfindERKNS_10ByteVectorElS3_,
                            __ZN6TagLib4File6insertERKNS_10ByteVectorEmm,
                            __ZN6TagLib4File6lengthEv,
                            __ZN6TagLib4File8setValidEb,
                            __ZN6TagLib4File8truncateEl,
                            __ZN6TagLib4File9readBlockEm, __ZN6TagLib4FileC2EPKc,
                            __ZN6TagLib4FileC2EPNS_8IOStreamE,
                            __ZN6TagLib4FileD0Ev, __ZN6TagLib4FileD1Ev,
                            __ZN6TagLib4FileD2Ev,
                            __ZN6TagLib4MPEG10Properties4readEPNS0_4FileE,
                            __ZN6TagLib4MPEG10PropertiesC1EPNS0_4FileENS_15AudioProperties9ReadStyleE,
                            __ZN6TagLib4MPEG10PropertiesC2EPNS0_4FileENS_15AudioProperties9ReadStyleE,
                            __ZN6TagLib4MPEG10PropertiesD0Ev,
                            __ZN6TagLib4MPEG10PropertiesD1Ev,
                            __ZN6TagLib4MPEG10PropertiesD2Ev,
                            __ZN6TagLib4MPEG10XingHeader16xingHeaderOffsetENS0_6Header7VersionENS2_11ChannelModeE,
                            __ZN6TagLib4MPEG10XingHeader5parseERKNS_10ByteVectorE,
                            __ZN6TagLib4MPEG10XingHeaderC1ERKNS_10ByteVectorE,
                            __ZN6TagLib4MPEG10XingHeaderC2ERKNS_10ByteVectorE,
                            __ZN6TagLib4MPEG10XingHeaderD0Ev,
                            __ZN6TagLib4MPEG10XingHeaderD1Ev,
                            __ZN6TagLib4MPEG10XingHeaderD2Ev,
                            __ZN6TagLib4MPEG4File13setPropertiesERKNS_11PropertyMapE,
                            __ZN6TagLib4MPEG4File15lastFrameOffsetEv,
                            __ZN6TagLib4MPEG4File15nextFrameOffsetEl,
                            __ZN6TagLib4MPEG4File16firstFrameOffsetEv,
                            __ZN6TagLib4MPEG4File19previousFrameOffsetEl,
                            __ZN6TagLib4MPEG4File20setID3v2FrameFactoryEPKNS_5ID3v212FrameFactoryE,
                            __ZN6TagLib4MPEG4File27removeUnsupportedPropertiesERKNS_10StringListE,
                            __ZN6TagLib4MPEG4File4readEbNS_15AudioProperties9ReadStyleE,
                            __ZN6TagLib4MPEG4File4saveEi,
                            __ZN6TagLib4MPEG4File4saveEib,
                            __ZN6TagLib4MPEG4File4saveEibi,
                            __ZN6TagLib4MPEG4File4saveEibib,
                            __ZN6TagLib4MPEG4File4saveEv,
                            __ZN6TagLib4MPEG4File5stripEi,
                            __ZN6TagLib4MPEG4File5stripEib,
                            __ZN6TagLib4MPEG4File6APETagEb,
                            __ZN6TagLib4MPEG4File8ID3v1TagEb,
                            __ZN6TagLib4MPEG4File8ID3v2TagEb,
                            __ZN6TagLib4MPEG4File9findID3v2ENS_15AudioProperties9ReadStyleE,
                            __ZN6TagLib4MPEG4FileC1EPKcPNS_5ID3v212FrameFactoryEbNS_15AudioProperties9ReadStyleE,
                            __ZN6TagLib4MPEG4FileC1EPKcbNS_15AudioProperties9ReadStyleE,
                            __ZN6TagLib4MPEG4FileC1EPNS_8IOStreamEPNS_5ID3v212FrameFactoryEbNS_15AudioProperties9ReadStyleE,
                            __ZN6TagLib4MPEG4FileC2EPKcPNS_5ID3v212FrameFactoryEbNS_15AudioProperties9ReadStyleE,
                            __ZN6TagLib4MPEG4FileC2EPKcbNS_15AudioProperties9ReadStyleE,
                            __ZN6TagLib4MPEG4FileC2EPNS_8IOStreamEPNS_5ID3v212FrameFactoryEbNS_15AudioProperties9ReadStyleE,
                            __ZN6TagLib4MPEG4FileD0Ev, __ZN6TagLib4MPEG4FileD1Ev,
                            __ZN6TagLib4MPEG4FileD2Ev,
                            __ZN6TagLib4MPEG6Header5parseEPNS_4FileElb,
                            __ZN6TagLib4MPEG6HeaderC1EPNS_4FileElb,
                            __ZN6TagLib4MPEG6HeaderC1ERKNS_10ByteVectorE,
                            __ZN6TagLib4MPEG6HeaderC1ERKS1_,
                            __ZN6TagLib4MPEG6HeaderC2EPNS_4FileElb,
                            __ZN6TagLib4MPEG6HeaderC2ERKNS_10ByteVectorE,
                            __ZN6TagLib4MPEG6HeaderC2ERKS1_,
                            __ZN6TagLib4MPEG6HeaderD0Ev,
                            __ZN6TagLib4MPEG6HeaderD1Ev,
                            __ZN6TagLib4MPEG6HeaderD2Ev,
                            __ZN6TagLib4MPEG6HeaderaSERKS1_,
                            __ZN6TagLib4RIFF3WAV10Properties4readEPNS1_4FileE,
                            __ZN6TagLib4RIFF3WAV10PropertiesC1EPNS1_4FileENS_15AudioProperties9ReadStyleE,
                            __ZN6TagLib4RIFF3WAV10PropertiesC1ERKNS_10ByteVectorENS_15AudioProperties9ReadStyleE,
                            __ZN6TagLib4RIFF3WAV10PropertiesC1ERKNS_10ByteVectorEjNS_15AudioProperties9ReadStyleE,
                            __ZN6TagLib4RIFF3WAV10PropertiesC2EPNS1_4FileENS_15AudioProperties9ReadStyleE,
                            __ZN6TagLib4RIFF3WAV10PropertiesC2ERKNS_10ByteVectorENS_15AudioProperties9ReadStyleE,
                            __ZN6TagLib4RIFF3WAV10PropertiesC2ERKNS_10ByteVectorEjNS_15AudioProperties9ReadStyleE,
                            __ZN6TagLib4RIFF3WAV10PropertiesD0Ev,
                            __ZN6TagLib4RIFF3WAV10PropertiesD1Ev,
                            __ZN6TagLib4RIFF3WAV10PropertiesD2Ev,
                            __ZN6TagLib4RIFF3WAV4File13setPropertiesERKNS_11PropertyMapE,
                            __ZN6TagLib4RIFF3WAV4File15removeTagChunksENS2_8TagTypesE,
                            __ZN6TagLib4RIFF3WAV4File27removeUnsupportedPropertiesERKNS_10StringListE,
                            __ZN6TagLib4RIFF3WAV4File4readEb,
                            __ZN6TagLib4RIFF3WAV4File4saveENS2_8TagTypesEbi,
                            __ZN6TagLib4RIFF3WAV4File4saveEv,
                            __ZN6TagLib4RIFF3WAV4File5stripENS2_8TagTypesE,
                            __ZN6TagLib4RIFF3WAV4FileC1EPKcbNS_15AudioProperties9ReadStyleE,
                            __ZN6TagLib4RIFF3WAV4FileC1EPNS_8IOStreamEbNS_15AudioProperties9ReadStyleE,
                            __ZN6TagLib4RIFF3WAV4FileC2EPKcbNS_15AudioProperties9ReadStyleE,
                            __ZN6TagLib4RIFF3WAV4FileC2EPNS_8IOStreamEbNS_15AudioProperties9ReadStyleE,
                            __ZN6TagLib4RIFF3WAV4FileD0Ev,
                            __ZN6TagLib4RIFF3WAV4FileD1Ev,
                            __ZN6TagLib4RIFF3WAV4FileD2Ev,
                            __ZN6TagLib4RIFF4AIFF10Properties4readEPNS1_4FileE,
                            __ZN6TagLib4RIFF4AIFF10PropertiesC1EPNS1_4FileENS_15AudioProperties9ReadStyleE,
                            __ZN6TagLib4RIFF4AIFF10PropertiesC1ERKNS_10ByteVectorENS_15AudioProperties9ReadStyleE,
                            __ZN6TagLib4RIFF4AIFF10PropertiesC2EPNS1_4FileENS_15AudioProperties9ReadStyleE,
                            __ZN6TagLib4RIFF4AIFF10PropertiesC2ERKNS_10ByteVectorENS_15AudioProperties9ReadStyleE,
                            __ZN6TagLib4RIFF4AIFF10PropertiesD0Ev,
                            __ZN6TagLib4RIFF4AIFF10PropertiesD1Ev,
                            __ZN6TagLib4RIFF4AIFF10PropertiesD2Ev,
                            __ZN6TagLib4RIFF4AIFF4File13setPropertiesERKNS_11PropertyMapE,
                            __ZN6TagLib4RIFF4AIFF4File27removeUnsupportedPropertiesERKNS_10StringListE,
                            __ZN6TagLib4RIFF4AIFF4File4readEb,
                            __ZN6TagLib4RIFF4AIFF4File4saveEv,
                            __ZN6TagLib4RIFF4AIFF4FileC1EPKcbNS_15AudioProperties9ReadStyleE,
                            __ZN6TagLib4RIFF4AIFF4FileC1EPNS_8IOStreamEbNS_15AudioProperties9ReadStyleE,
                            __ZN6TagLib4RIFF4AIFF4FileC2EPKcbNS_15AudioProperties9ReadStyleE,
                            __ZN6TagLib4RIFF4AIFF4FileC2EPNS_8IOStreamEbNS_15AudioProperties9ReadStyleE,
                            __ZN6TagLib4RIFF4AIFF4FileD0Ev,
                            __ZN6TagLib4RIFF4AIFF4FileD1Ev,
                            __ZN6TagLib4RIFF4AIFF4FileD2Ev,
                            __ZN6TagLib4RIFF4File10writeChunkERKNS_10ByteVectorES4_mm,
                            __ZN6TagLib4RIFF4File11removeChunkERKNS_10ByteVectorE,
                            __ZN6TagLib4RIFF4File11removeChunkEj,
                            __ZN6TagLib4RIFF4File12setChunkDataERKNS_10ByteVectorES4_,
                            __ZN6TagLib4RIFF4File12setChunkDataERKNS_10ByteVectorES4_b,
                            __ZN6TagLib4RIFF4File12setChunkDataEjRKNS_10ByteVectorE,
                            __ZN6TagLib4RIFF4File16updateGlobalSizeEv,
                            __ZN6TagLib4RIFF4File4readEv,
                            __ZN6TagLib4RIFF4File9chunkDataEj,
                            __ZN6TagLib4RIFF4FileC2EPKcNS1_10EndiannessE,
                            __ZN6TagLib4RIFF4FileC2EPNS_8IOStreamENS1_10EndiannessE,
                            __ZN6TagLib4RIFF4FileD0Ev, __ZN6TagLib4RIFF4FileD1Ev,
                            __ZN6TagLib4RIFF4FileD2Ev,
                            __ZN6TagLib4RIFF4Info13StringHandlerC1Ev,
                            __ZN6TagLib4RIFF4Info13StringHandlerC2Ev,
                            __ZN6TagLib4RIFF4Info13StringHandlerD1Ev,
                            __ZN6TagLib4RIFF4Info13StringHandlerD2Ev,
                            __ZN6TagLib4RIFF4Info3Tag10setCommentERKNS_6StringE,
                            __ZN6TagLib4RIFF4Info3Tag11removeFieldERKNS_10ByteVectorE,
                            __ZN6TagLib4RIFF4Info3Tag12setFieldTextERKNS_10ByteVectorERKNS_6StringE,
                            __ZN6TagLib4RIFF4Info3Tag16setStringHandlerEPKNS1_13StringHandlerE,
                            __ZN6TagLib4RIFF4Info3Tag5parseERKNS_10ByteVectorE,
                            __ZN6TagLib4RIFF4Info3Tag7setYearEj,
                            __ZN6TagLib4RIFF4Info3Tag8setAlbumERKNS_6StringE,
                            __ZN6TagLib4RIFF4Info3Tag8setGenreERKNS_6StringE,
                            __ZN6TagLib4RIFF4Info3Tag8setTitleERKNS_6StringE,
                            __ZN6TagLib4RIFF4Info3Tag8setTrackEj,
                            __ZN6TagLib4RIFF4Info3Tag9setArtistERKNS_6StringE,
                            __ZN6TagLib4RIFF4Info3TagC1ERKNS_10ByteVectorE,
                            __ZN6TagLib4RIFF4Info3TagC1Ev,
                            __ZN6TagLib4RIFF4Info3TagC2ERKNS_10ByteVectorE,
                            __ZN6TagLib4RIFF4Info3TagC2Ev,
                            __ZN6TagLib4RIFF4Info3TagD0Ev,
                            __ZN6TagLib4RIFF4Info3TagD1Ev,
                            __ZN6TagLib4RIFF4Info3TagD2Ev,
                            __ZN6TagLib4zlib10decompressERKNS_10ByteVectorE,
                            __ZN6TagLib4zlib11isAvailableEv,
                            __ZN6TagLib5ID3v110genreIndexERKNS_6StringE,
                            __ZN6TagLib5ID3v113StringHandlerC1Ev,
                            __ZN6TagLib5ID3v113StringHandlerC2Ev,
                            __ZN6TagLib5ID3v13Tag10setCommentERKNS_6StringE,
                            __ZN6TagLib5ID3v13Tag14fileIdentifierEv,
                            __ZN6TagLib5ID3v13Tag14setGenreNumberEj,
                            __ZN6TagLib5ID3v13Tag16setStringHandlerEPKNS0_13StringHandlerE,
                            __ZN6TagLib5ID3v13Tag4readEv,
                            __ZN6TagLib5ID3v13Tag5parseERKNS_10ByteVectorE,
                            __ZN6TagLib5ID3v13Tag7setYearEj,
                            __ZN6TagLib5ID3v13Tag8setAlbumERKNS_6StringE,
                            __ZN6TagLib5ID3v13Tag8setGenreERKNS_6StringE,
                            __ZN6TagLib5ID3v13Tag8setTitleERKNS_6StringE,
                            __ZN6TagLib5ID3v13Tag8setTrackEj,
                            __ZN6TagLib5ID3v13Tag9setArtistERKNS_6StringE,
                            __ZN6TagLib5ID3v13TagC1EPNS_4FileEl,
                            __ZN6TagLib5ID3v13TagC1Ev,
                            __ZN6TagLib5ID3v13TagC2EPNS_4FileEl,
                            __ZN6TagLib5ID3v13TagC2Ev, __ZN6TagLib5ID3v13TagD0Ev,
                            __ZN6TagLib5ID3v13TagD1Ev, __ZN6TagLib5ID3v13TagD2Ev,
                            __ZN6TagLib5ID3v15genreEi,
                            __ZN6TagLib5ID3v18genreMapEv,
                            __ZN6TagLib5ID3v19genreListEv,
                            __ZN6TagLib5ID3v212ChapterFrame10setEndTimeERKj,
                            __ZN6TagLib5ID3v212ChapterFrame11parseFieldsERKNS_10ByteVectorE,
                            __ZN6TagLib5ID3v212ChapterFrame12setElementIDERKNS_10ByteVectorE,
                            __ZN6TagLib5ID3v212ChapterFrame12setEndOffsetERKj,
                            __ZN6TagLib5ID3v212ChapterFrame12setStartTimeERKj,
                            __ZN6TagLib5ID3v212ChapterFrame14setStartOffsetERKj,
                            __ZN6TagLib5ID3v212ChapterFrame15findByElementIDEPKNS0_3TagERKNS_10ByteVectorE,
                            __ZN6TagLib5ID3v212ChapterFrame16addEmbeddedFrameEPNS0_5FrameE,
                            __ZN6TagLib5ID3v212ChapterFrame19removeEmbeddedFrameEPNS0_5FrameEb,
                            __ZN6TagLib5ID3v212ChapterFrame20removeEmbeddedFramesERKNS_10ByteVectorE,
                            __ZN6TagLib5ID3v212ChapterFrameC1EPKNS0_6HeaderERKNS_10ByteVectorE,
                            __ZN6TagLib5ID3v212ChapterFrameC1EPKNS0_6HeaderERKNS_10ByteVectorEPNS0_5Frame6HeaderE,
                            __ZN6TagLib5ID3v212ChapterFrameC1ERKNS_10ByteVectorEjjjjRKNS_4ListIPNS0_5FrameEEE,
                            __ZN6TagLib5ID3v212ChapterFrameC2EPKNS0_6HeaderERKNS_10ByteVectorE,
                            __ZN6TagLib5ID3v212ChapterFrameC2EPKNS0_6HeaderERKNS_10ByteVectorEPNS0_5Frame6HeaderE,
                            __ZN6TagLib5ID3v212ChapterFrameC2ERKNS_10ByteVectorEjjjjRKNS_4ListIPNS0_5FrameEEE,
                            __ZN6TagLib5ID3v212ChapterFrameD0Ev,
                            __ZN6TagLib5ID3v212ChapterFrameD1Ev,
                            __ZN6TagLib5ID3v212ChapterFrameD2Ev,
                            __ZN6TagLib5ID3v212FrameFactory22setDefaultTextEncodingENS_6String4TypeE,
                            __ZN6TagLib5ID3v212FrameFactory7factoryE,
                            __ZN6TagLib5ID3v212FrameFactory8instanceEv,
                            __ZN6TagLib5ID3v212FrameFactoryC1Ev,
                            __ZN6TagLib5ID3v212FrameFactoryC2Ev,
                            __ZN6TagLib5ID3v212FrameFactoryD0Ev,
                            __ZN6TagLib5ID3v212FrameFactoryD1Ev,
                            __ZN6TagLib5ID3v212FrameFactoryD2Ev,
                            __ZN6TagLib5ID3v212PodcastFrame11parseFieldsERKNS_10ByteVectorE,
                            __ZN6TagLib5ID3v212PodcastFrameC1ERKNS_10ByteVectorEPNS0_5Frame6HeaderE,
                            __ZN6TagLib5ID3v212PodcastFrameC1Ev,
                            __ZN6TagLib5ID3v212PodcastFrameC2ERKNS_10ByteVectorEPNS0_5Frame6HeaderE,
                            __ZN6TagLib5ID3v212PodcastFrameC2Ev,
                            __ZN6TagLib5ID3v212PodcastFrameD0Ev,
                            __ZN6TagLib5ID3v212PodcastFrameD1Ev,
                            __ZN6TagLib5ID3v212PodcastFrameD2Ev,
                            __ZN6TagLib5ID3v212PrivateFrame11parseFieldsERKNS_10ByteVectorE,
                            __ZN6TagLib5ID3v212PrivateFrame7setDataERKNS_10ByteVectorE,
                            __ZN6TagLib5ID3v212PrivateFrame8setOwnerERKNS_6StringE,
                            __ZN6TagLib5ID3v212PrivateFrameC1ERKNS_10ByteVectorE,
                            __ZN6TagLib5ID3v212PrivateFrameC1ERKNS_10ByteVectorEPNS0_5Frame6HeaderE,
                            __ZN6TagLib5ID3v212PrivateFrameC1Ev,
                            __ZN6TagLib5ID3v212PrivateFrameC2ERKNS_10ByteVectorE,
                            __ZN6TagLib5ID3v212PrivateFrameC2ERKNS_10ByteVectorEPNS0_5Frame6HeaderE,
                            __ZN6TagLib5ID3v212PrivateFrameC2Ev,
                            __ZN6TagLib5ID3v212PrivateFrameD0Ev,
                            __ZN6TagLib5ID3v212PrivateFrameD1Ev,
                            __ZN6TagLib5ID3v212PrivateFrameD2Ev,
                            __ZN6TagLib5ID3v212UnknownFrame11parseFieldsERKNS_10ByteVectorE,
                            __ZN6TagLib5ID3v212UnknownFrameC1ERKNS_10ByteVectorE,
                            __ZN6TagLib5ID3v212UnknownFrameC1ERKNS_10ByteVectorEPNS0_5Frame6HeaderE,
                            __ZN6TagLib5ID3v212UnknownFrameC2ERKNS_10ByteVectorE,
                            __ZN6TagLib5ID3v212UnknownFrameC2ERKNS_10ByteVectorEPNS0_5Frame6HeaderE,
                            __ZN6TagLib5ID3v212UnknownFrameD0Ev,
                            __ZN6TagLib5ID3v212UnknownFrameD1Ev,
                            __ZN6TagLib5ID3v212UnknownFrameD2Ev,
                            __ZN6TagLib5ID3v212UrlLinkFrame11parseFieldsERKNS_10ByteVectorE,
                            __ZN6TagLib5ID3v212UrlLinkFrame6setUrlERKNS_6StringE,
                            __ZN6TagLib5ID3v212UrlLinkFrame7setTextERKNS_6StringE,
                            __ZN6TagLib5ID3v212UrlLinkFrameC1ERKNS_10ByteVectorE,
                            __ZN6TagLib5ID3v212UrlLinkFrameC1ERKNS_10ByteVectorEPNS0_5Frame6HeaderE,
                            __ZN6TagLib5ID3v212UrlLinkFrameC2ERKNS_10ByteVectorE,
                            __ZN6TagLib5ID3v212UrlLinkFrameC2ERKNS_10ByteVectorEPNS0_5Frame6HeaderE,
                            __ZN6TagLib5ID3v212UrlLinkFrameD0Ev,
                            __ZN6TagLib5ID3v212UrlLinkFrameD1Ev,
                            __ZN6TagLib5ID3v212UrlLinkFrameD2Ev,
                            __ZN6TagLib5ID3v213CommentsFrame11parseFieldsERKNS_10ByteVectorE,
                            __ZN6TagLib5ID3v213CommentsFrame11setLanguageERKNS_10ByteVectorE,
                            __ZN6TagLib5ID3v213CommentsFrame14setDescriptionERKNS_6StringE,
                            __ZN6TagLib5ID3v213CommentsFrame15setTextEncodingENS_6String4TypeE,
                            __ZN6TagLib5ID3v213CommentsFrame17findByDescriptionEPKNS0_3TagERKNS_6StringE,
                            __ZN6TagLib5ID3v213CommentsFrame7setTextERKNS_6StringE,
                            __ZN6TagLib5ID3v213CommentsFrameC1ENS_6String4TypeE,
                            __ZN6TagLib5ID3v213CommentsFrameC1ERKNS_10ByteVectorE,
                            __ZN6TagLib5ID3v213CommentsFrameC1ERKNS_10ByteVectorEPNS0_5Frame6HeaderE,
                            __ZN6TagLib5ID3v213CommentsFrameC2ENS_6String4TypeE,
                            __ZN6TagLib5ID3v213CommentsFrameC2ERKNS_10ByteVectorE,
                            __ZN6TagLib5ID3v213CommentsFrameC2ERKNS_10ByteVectorEPNS0_5Frame6HeaderE,
                            __ZN6TagLib5ID3v213CommentsFrameD0Ev,
                            __ZN6TagLib5ID3v213CommentsFrameD1Ev,
                            __ZN6TagLib5ID3v213CommentsFrameD2Ev,
                            __ZN6TagLib5ID3v214ExtendedHeader5parseERKNS_10ByteVectorE,
                            __ZN6TagLib5ID3v214ExtendedHeader7setDataERKNS_10ByteVectorE,
                            __ZN6TagLib5ID3v214ExtendedHeaderC1Ev,
                            __ZN6TagLib5ID3v214ExtendedHeaderC2Ev,
                            __ZN6TagLib5ID3v214ExtendedHeaderD0Ev,
                            __ZN6TagLib5ID3v214ExtendedHeaderD1Ev,
                            __ZN6TagLib5ID3v214ExtendedHeaderD2Ev,
                            __ZN6TagLib5ID3v214OwnershipFrame11parseFieldsERKNS_10ByteVectorE,
                            __ZN6TagLib5ID3v214OwnershipFrame12setPricePaidERKNS_6StringE,
                            __ZN6TagLib5ID3v214OwnershipFrame15setTextEncodingENS_6String4TypeE,
                            __ZN6TagLib5ID3v214OwnershipFrame16setDatePurchasedERKNS_6StringE,
                            __ZN6TagLib5ID3v214OwnershipFrame9setSellerERKNS_6StringE,
                            __ZN6TagLib5ID3v214OwnershipFrameC1ENS_6String4TypeE,
                            __ZN6TagLib5ID3v214OwnershipFrameC1ERKNS_10ByteVectorE,
                            __ZN6TagLib5ID3v214OwnershipFrameC1ERKNS_10ByteVectorEPNS0_5Frame6HeaderE,
                            __ZN6TagLib5ID3v214OwnershipFrameC2ENS_6String4TypeE,
                            __ZN6TagLib5ID3v214OwnershipFrameC2ERKNS_10ByteVectorE,
                            __ZN6TagLib5ID3v214OwnershipFrameC2ERKNS_10ByteVectorEPNS0_5Frame6HeaderE,
                            __ZN6TagLib5ID3v214OwnershipFrameD0Ev,
                            __ZN6TagLib5ID3v214OwnershipFrameD1Ev,
                            __ZN6TagLib5ID3v214OwnershipFrameD2Ev,
                            __ZN6TagLib5ID3v216UserUrlLinkFrame11parseFieldsERKNS_10ByteVectorE,
                            __ZN6TagLib5ID3v216UserUrlLinkFrame14setDescriptionERKNS_6StringE,
                            __ZN6TagLib5ID3v216UserUrlLinkFrame15setTextEncodingENS_6String4TypeE,
                            __ZN6TagLib5ID3v216UserUrlLinkFrame4findEPNS0_3TagERKNS_6StringE,
                            __ZN6TagLib5ID3v216UserUrlLinkFrameC1ENS_6String4TypeE,
                            __ZN6TagLib5ID3v216UserUrlLinkFrameC1ERKNS_10ByteVectorE,
                            __ZN6TagLib5ID3v216UserUrlLinkFrameC1ERKNS_10ByteVectorEPNS0_5Frame6HeaderE,
                            __ZN6TagLib5ID3v216UserUrlLinkFrameC2ENS_6String4TypeE,
                            __ZN6TagLib5ID3v216UserUrlLinkFrameC2ERKNS_10ByteVectorE,
                            __ZN6TagLib5ID3v216UserUrlLinkFrameC2ERKNS_10ByteVectorEPNS0_5Frame6HeaderE,
                            __ZN6TagLib5ID3v216UserUrlLinkFrameD0Ev,
                            __ZN6TagLib5ID3v216UserUrlLinkFrameD1Ev,
                            __ZN6TagLib5ID3v216UserUrlLinkFrameD2Ev,
                            __ZN6TagLib5ID3v218PopularimeterFrame10setCounterEj,
                            __ZN6TagLib5ID3v218PopularimeterFrame11parseFieldsERKNS_10ByteVectorE,
                            __ZN6TagLib5ID3v218PopularimeterFrame8setEmailERKNS_6StringE,
                            __ZN6TagLib5ID3v218PopularimeterFrame9setRatingEi,
                            __ZN6TagLib5ID3v218PopularimeterFrameC1ERKNS_10ByteVectorE,
                            __ZN6TagLib5ID3v218PopularimeterFrameC1ERKNS_10ByteVectorEPNS0_5Frame6HeaderE,
                            __ZN6TagLib5ID3v218PopularimeterFrameC1Ev,
                            __ZN6TagLib5ID3v218PopularimeterFrameC2ERKNS_10ByteVectorE,
                            __ZN6TagLib5ID3v218PopularimeterFrameC2ERKNS_10ByteVectorEPNS0_5Frame6HeaderE,
                            __ZN6TagLib5ID3v218PopularimeterFrameC2Ev,
                            __ZN6TagLib5ID3v218PopularimeterFrameD0Ev,
                            __ZN6TagLib5ID3v218PopularimeterFrameD1Ev,
                            __ZN6TagLib5ID3v218PopularimeterFrameD2Ev,
                            __ZN6TagLib5ID3v219Latin1StringHandlerC1Ev,
                            __ZN6TagLib5ID3v219Latin1StringHandlerC2Ev,
                            __ZN6TagLib5ID3v219Latin1StringHandlerD0Ev,
                            __ZN6TagLib5ID3v219Latin1StringHandlerD1Ev,
                            __ZN6TagLib5ID3v219Latin1StringHandlerD2Ev,
                            __ZN6TagLib5ID3v219RelativeVolumeFrame11parseFieldsERKNS_10ByteVectorE,
                            __ZN6TagLib5ID3v219RelativeVolumeFrame13setPeakVolumeERKNS1_10PeakVolumeE,
                            __ZN6TagLib5ID3v219RelativeVolumeFrame13setPeakVolumeERKNS1_10PeakVolumeENS1_11ChannelTypeE,
                            __ZN6TagLib5ID3v219RelativeVolumeFrame14setChannelTypeENS1_11ChannelTypeE,
                            __ZN6TagLib5ID3v219RelativeVolumeFrame17setIdentificationERKNS_6StringE,
                            __ZN6TagLib5ID3v219RelativeVolumeFrame19setVolumeAdjustmentEf,
                            __ZN6TagLib5ID3v219RelativeVolumeFrame19setVolumeAdjustmentEfNS1_11ChannelTypeE,
                            __ZN6TagLib5ID3v219RelativeVolumeFrame24setVolumeAdjustmentIndexEs,
                            __ZN6TagLib5ID3v219RelativeVolumeFrame24setVolumeAdjustmentIndexEsNS1_11ChannelTypeE,
                            __ZN6TagLib5ID3v219RelativeVolumeFrameC1ERKNS_10ByteVectorE,
                            __ZN6TagLib5ID3v219RelativeVolumeFrameC1ERKNS_10ByteVectorEPNS0_5Frame6HeaderE,
                            __ZN6TagLib5ID3v219RelativeVolumeFrameC1Ev,
                            __ZN6TagLib5ID3v219RelativeVolumeFrameC2ERKNS_10ByteVectorE,
                            __ZN6TagLib5ID3v219RelativeVolumeFrameC2ERKNS_10ByteVectorEPNS0_5Frame6HeaderE,
                            __ZN6TagLib5ID3v219RelativeVolumeFrameC2Ev,
                            __ZN6TagLib5ID3v219RelativeVolumeFrameD0Ev,
                            __ZN6TagLib5ID3v219RelativeVolumeFrameD1Ev,
                            __ZN6TagLib5ID3v219RelativeVolumeFrameD2Ev,
                            __ZN6TagLib5ID3v220AttachedPictureFrame10setPictureERKNS_10ByteVectorE,
                            __ZN6TagLib5ID3v220AttachedPictureFrame11parseFieldsERKNS_10ByteVectorE,
                            __ZN6TagLib5ID3v220AttachedPictureFrame11setMimeTypeERKNS_6StringE,
                            __ZN6TagLib5ID3v220AttachedPictureFrame14setDescriptionERKNS_6StringE,
                            __ZN6TagLib5ID3v220AttachedPictureFrame15setTextEncodingENS_6String4TypeE,
                            __ZN6TagLib5ID3v220AttachedPictureFrame7setTypeENS1_4TypeE,
                            __ZN6TagLib5ID3v220AttachedPictureFrameC1ERKNS_10ByteVectorE,
                            __ZN6TagLib5ID3v220AttachedPictureFrameC1ERKNS_10ByteVectorEPNS0_5Frame6HeaderE,
                            __ZN6TagLib5ID3v220AttachedPictureFrameC1Ev,
                            __ZN6TagLib5ID3v220AttachedPictureFrameC2ERKNS_10ByteVectorE,
                            __ZN6TagLib5ID3v220AttachedPictureFrameC2ERKNS_10ByteVectorEPNS0_5Frame6HeaderE,
                            __ZN6TagLib5ID3v220AttachedPictureFrameC2Ev,
                            __ZN6TagLib5ID3v220AttachedPictureFrameD0Ev,
                            __ZN6TagLib5ID3v220AttachedPictureFrameD1Ev,
                            __ZN6TagLib5ID3v220AttachedPictureFrameD2Ev,
                            __ZN6TagLib5ID3v220TableOfContentsFrame11parseFieldsERKNS_10ByteVectorE,
                            __ZN6TagLib5ID3v220TableOfContentsFrame12findTopLevelEPKNS0_3TagE,
                            __ZN6TagLib5ID3v220TableOfContentsFrame12setElementIDERKNS_10ByteVectorE,
                            __ZN6TagLib5ID3v220TableOfContentsFrame12setIsOrderedERKb,
                            __ZN6TagLib5ID3v220TableOfContentsFrame13setIsTopLevelERKb,
                            __ZN6TagLib5ID3v220TableOfContentsFrame15addChildElementERKNS_10ByteVectorE,
                            __ZN6TagLib5ID3v220TableOfContentsFrame15findByElementIDEPKNS0_3TagERKNS_10ByteVectorE,
                            __ZN6TagLib5ID3v220TableOfContentsFrame16addEmbeddedFrameEPNS0_5FrameE,
                            __ZN6TagLib5ID3v220TableOfContentsFrame16setChildElementsERKNS_14ByteVectorListE,
                            __ZN6TagLib5ID3v220TableOfContentsFrame18removeChildElementERKNS_10ByteVectorE,
                            __ZN6TagLib5ID3v220TableOfContentsFrame19removeEmbeddedFrameEPNS0_5FrameEb,
                            __ZN6TagLib5ID3v220TableOfContentsFrame20removeEmbeddedFramesERKNS_10ByteVectorE,
                            __ZN6TagLib5ID3v220TableOfContentsFrameC1EPKNS0_6HeaderERKNS_10ByteVectorE,
                            __ZN6TagLib5ID3v220TableOfContentsFrameC1EPKNS0_6HeaderERKNS_10ByteVectorEPNS0_5Frame6HeaderE,
                            __ZN6TagLib5ID3v220TableOfContentsFrameC1ERKNS_10ByteVectorERKNS_14ByteVectorListERKNS_4ListIPNS0_5FrameEEE,
                            __ZN6TagLib5ID3v220TableOfContentsFrameC2EPKNS0_6HeaderERKNS_10ByteVectorE,
                            __ZN6TagLib5ID3v220TableOfContentsFrameC2EPKNS0_6HeaderERKNS_10ByteVectorEPNS0_5Frame6HeaderE,
                            __ZN6TagLib5ID3v220TableOfContentsFrameC2ERKNS_10ByteVectorERKNS_14ByteVectorListERKNS_4ListIPNS0_5FrameEEE,
                            __ZN6TagLib5ID3v220TableOfContentsFrameD0Ev,
                            __ZN6TagLib5ID3v220TableOfContentsFrameD1Ev,
                            __ZN6TagLib5ID3v220TableOfContentsFrameD2Ev,
                            __ZN6TagLib5ID3v221EventTimingCodesFrame11parseFieldsERKNS_10ByteVectorE,
                            __ZN6TagLib5ID3v221EventTimingCodesFrame16setSynchedEventsERKNS_4ListINS1_12SynchedEventEEE,
                            __ZN6TagLib5ID3v221EventTimingCodesFrame18setTimestampFormatENS1_15TimestampFormatE,
                            __ZN6TagLib5ID3v221EventTimingCodesFrameC1ERKNS_10ByteVectorE,
                            __ZN6TagLib5ID3v221EventTimingCodesFrameC1ERKNS_10ByteVectorEPNS0_5Frame6HeaderE,
                            __ZN6TagLib5ID3v221EventTimingCodesFrameC1Ev,
                            __ZN6TagLib5ID3v221EventTimingCodesFrameC2ERKNS_10ByteVectorE,
                            __ZN6TagLib5ID3v221EventTimingCodesFrameC2ERKNS_10ByteVectorEPNS0_5Frame6HeaderE,
                            __ZN6TagLib5ID3v221EventTimingCodesFrameC2Ev,
                            __ZN6TagLib5ID3v221EventTimingCodesFrameD0Ev,
                            __ZN6TagLib5ID3v221EventTimingCodesFrameD1Ev,
                            __ZN6TagLib5ID3v221EventTimingCodesFrameD2Ev,
                            __ZN6TagLib5ID3v223AttachedPictureFrameV2211parseFieldsERKNS_10ByteVectorE,
                            __ZN6TagLib5ID3v223AttachedPictureFrameV22C1ERKNS_10ByteVectorEPNS0_5Frame6HeaderE,
                            __ZN6TagLib5ID3v223AttachedPictureFrameV22C2ERKNS_10ByteVectorEPNS0_5Frame6HeaderE,
                            __ZN6TagLib5ID3v223SynchronizedLyricsFrame11parseFieldsERKNS_10ByteVectorE,
                            __ZN6TagLib5ID3v223SynchronizedLyricsFrame11setLanguageERKNS_10ByteVectorE,
                            __ZN6TagLib5ID3v223SynchronizedLyricsFrame14setDescriptionERKNS_6StringE,
                            __ZN6TagLib5ID3v223SynchronizedLyricsFrame14setSynchedTextERKNS_4ListINS1_11SynchedTextEEE,
                            __ZN6TagLib5ID3v223SynchronizedLyricsFrame15setTextEncodingENS_6String4TypeE,
                            __ZN6TagLib5ID3v223SynchronizedLyricsFrame18setTimestampFormatENS1_15TimestampFormatE,
                            __ZN6TagLib5ID3v223SynchronizedLyricsFrame7setTypeENS1_4TypeE,
                            __ZN6TagLib5ID3v223SynchronizedLyricsFrameC1ENS_6String4TypeE,
                            __ZN6TagLib5ID3v223SynchronizedLyricsFrameC1ERKNS_10ByteVectorE,
                            __ZN6TagLib5ID3v223SynchronizedLyricsFrameC1ERKNS_10ByteVectorEPNS0_5Frame6HeaderE,
                            __ZN6TagLib5ID3v223SynchronizedLyricsFrameC2ENS_6String4TypeE,
                            __ZN6TagLib5ID3v223SynchronizedLyricsFrameC2ERKNS_10ByteVectorE,
                            __ZN6TagLib5ID3v223SynchronizedLyricsFrameC2ERKNS_10ByteVectorEPNS0_5Frame6HeaderE,
                            __ZN6TagLib5ID3v223SynchronizedLyricsFrameD0Ev,
                            __ZN6TagLib5ID3v223SynchronizedLyricsFrameD1Ev,
                            __ZN6TagLib5ID3v223SynchronizedLyricsFrameD2Ev,
                            __ZN6TagLib5ID3v223TextIdentificationFrame11parseFieldsERKNS_10ByteVectorE,
                            __ZN6TagLib5ID3v223TextIdentificationFrame15createTIPLFrameERKNS_11PropertyMapE,
                            __ZN6TagLib5ID3v223TextIdentificationFrame15createTMCLFrameERKNS_11PropertyMapE,
                            __ZN6TagLib5ID3v223TextIdentificationFrame15setTextEncodingENS_6String4TypeE,
                            __ZN6TagLib5ID3v223TextIdentificationFrame17involvedPeopleMapEv,
                            __ZN6TagLib5ID3v223TextIdentificationFrame7setTextERKNS_10StringListE,
                            __ZN6TagLib5ID3v223TextIdentificationFrame7setTextERKNS_6StringE,
                            __ZN6TagLib5ID3v223TextIdentificationFrameC1ERKNS_10ByteVectorE,
                            __ZN6TagLib5ID3v223TextIdentificationFrameC1ERKNS_10ByteVectorENS_6String4TypeE,
                            __ZN6TagLib5ID3v223TextIdentificationFrameC1ERKNS_10ByteVectorEPNS0_5Frame6HeaderE,
                            __ZN6TagLib5ID3v223TextIdentificationFrameC2ERKNS_10ByteVectorE,
                            __ZN6TagLib5ID3v223TextIdentificationFrameC2ERKNS_10ByteVectorENS_6String4TypeE,
                            __ZN6TagLib5ID3v223TextIdentificationFrameC2ERKNS_10ByteVectorEPNS0_5Frame6HeaderE,
                            __ZN6TagLib5ID3v223TextIdentificationFrameD0Ev,
                            __ZN6TagLib5ID3v223TextIdentificationFrameD1Ev,
                            __ZN6TagLib5ID3v223TextIdentificationFrameD2Ev,
                            __ZN6TagLib5ID3v225UniqueFileIdentifierFrame11findByOwnerEPKNS0_3TagERKNS_6StringE,
                            __ZN6TagLib5ID3v225UniqueFileIdentifierFrame11parseFieldsERKNS_10ByteVectorE,
                            __ZN6TagLib5ID3v225UniqueFileIdentifierFrame13setIdentifierERKNS_10ByteVectorE,
                            __ZN6TagLib5ID3v225UniqueFileIdentifierFrame8setOwnerERKNS_6StringE,
                            __ZN6TagLib5ID3v225UniqueFileIdentifierFrameC1ERKNS_10ByteVectorE,
                            __ZN6TagLib5ID3v225UniqueFileIdentifierFrameC1ERKNS_10ByteVectorEPNS0_5Frame6HeaderE,
                            __ZN6TagLib5ID3v225UniqueFileIdentifierFrameC1ERKNS_6StringERKNS_10ByteVectorE,
                            __ZN6TagLib5ID3v225UniqueFileIdentifierFrameC2ERKNS_10ByteVectorE,
                            __ZN6TagLib5ID3v225UniqueFileIdentifierFrameC2ERKNS_10ByteVectorEPNS0_5Frame6HeaderE,
                            __ZN6TagLib5ID3v225UniqueFileIdentifierFrameC2ERKNS_6StringERKNS_10ByteVectorE,
                            __ZN6TagLib5ID3v225UniqueFileIdentifierFrameD0Ev,
                            __ZN6TagLib5ID3v225UniqueFileIdentifierFrameD1Ev,
                            __ZN6TagLib5ID3v225UniqueFileIdentifierFrameD2Ev,
                            __ZN6TagLib5ID3v225UnsynchronizedLyricsFrame11parseFieldsERKNS_10ByteVectorE,
                            __ZN6TagLib5ID3v225UnsynchronizedLyricsFrame11setLanguageERKNS_10ByteVectorE,
                            __ZN6TagLib5ID3v225UnsynchronizedLyricsFrame14setDescriptionERKNS_6StringE,
                            __ZN6TagLib5ID3v225UnsynchronizedLyricsFrame15setTextEncodingENS_6String4TypeE,
                            __ZN6TagLib5ID3v225UnsynchronizedLyricsFrame17findByDescriptionEPKNS0_3TagERKNS_6StringE,
                            __ZN6TagLib5ID3v225UnsynchronizedLyricsFrame7setTextERKNS_6StringE,
                            __ZN6TagLib5ID3v225UnsynchronizedLyricsFrameC1ENS_6String4TypeE,
                            __ZN6TagLib5ID3v225UnsynchronizedLyricsFrameC1ERKNS_10ByteVectorE,
                            __ZN6TagLib5ID3v225UnsynchronizedLyricsFrameC1ERKNS_10ByteVectorEPNS0_5Frame6HeaderE,
                            __ZN6TagLib5ID3v225UnsynchronizedLyricsFrameC2ENS_6String4TypeE,
                            __ZN6TagLib5ID3v225UnsynchronizedLyricsFrameC2ERKNS_10ByteVectorE,
                            __ZN6TagLib5ID3v225UnsynchronizedLyricsFrameC2ERKNS_10ByteVectorEPNS0_5Frame6HeaderE,
                            __ZN6TagLib5ID3v225UnsynchronizedLyricsFrameD0Ev,
                            __ZN6TagLib5ID3v225UnsynchronizedLyricsFrameD1Ev,
                            __ZN6TagLib5ID3v225UnsynchronizedLyricsFrameD2Ev,
                            __ZN6TagLib5ID3v227UserTextIdentificationFrame11checkFieldsEv,
                            __ZN6TagLib5ID3v227UserTextIdentificationFrame14setDescriptionERKNS_6StringE,
                            __ZN6TagLib5ID3v227UserTextIdentificationFrame4findEPNS0_3TagERKNS_6StringE,
                            __ZN6TagLib5ID3v227UserTextIdentificationFrame7setTextERKNS_10StringListE,
                            __ZN6TagLib5ID3v227UserTextIdentificationFrame7setTextERKNS_6StringE,
                            __ZN6TagLib5ID3v227UserTextIdentificationFrameC1ENS_6String4TypeE,
                            __ZN6TagLib5ID3v227UserTextIdentificationFrameC1ERKNS_10ByteVectorE,
                            __ZN6TagLib5ID3v227UserTextIdentificationFrameC1ERKNS_10ByteVectorEPNS0_5Frame6HeaderE,
                            __ZN6TagLib5ID3v227UserTextIdentificationFrameC1ERKNS_6StringERKNS_10StringListENS2_4TypeE,
                            __ZN6TagLib5ID3v227UserTextIdentificationFrameC2ENS_6String4TypeE,
                            __ZN6TagLib5ID3v227UserTextIdentificationFrameC2ERKNS_10ByteVectorE,
                            __ZN6TagLib5ID3v227UserTextIdentificationFrameC2ERKNS_10ByteVectorEPNS0_5Frame6HeaderE,
                            __ZN6TagLib5ID3v227UserTextIdentificationFrameC2ERKNS_6StringERKNS_10StringListENS2_4TypeE,
                            __ZN6TagLib5ID3v230GeneralEncapsulatedObjectFrame11parseFieldsERKNS_10ByteVectorE,
                            __ZN6TagLib5ID3v230GeneralEncapsulatedObjectFrame11setFileNameERKNS_6StringE,
                            __ZN6TagLib5ID3v230GeneralEncapsulatedObjectFrame11setMimeTypeERKNS_6StringE,
                            __ZN6TagLib5ID3v230GeneralEncapsulatedObjectFrame14setDescriptionERKNS_6StringE,
                            __ZN6TagLib5ID3v230GeneralEncapsulatedObjectFrame15setTextEncodingENS_6String4TypeE,
                            __ZN6TagLib5ID3v230GeneralEncapsulatedObjectFrame9setObjectERKNS_10ByteVectorE,
                            __ZN6TagLib5ID3v230GeneralEncapsulatedObjectFrameC1ERKNS_10ByteVectorE,
                            __ZN6TagLib5ID3v230GeneralEncapsulatedObjectFrameC1ERKNS_10ByteVectorEPNS0_5Frame6HeaderE,
                            __ZN6TagLib5ID3v230GeneralEncapsulatedObjectFrameC1Ev,
                            __ZN6TagLib5ID3v230GeneralEncapsulatedObjectFrameC2ERKNS_10ByteVectorE,
                            __ZN6TagLib5ID3v230GeneralEncapsulatedObjectFrameC2ERKNS_10ByteVectorEPNS0_5Frame6HeaderE,
                            __ZN6TagLib5ID3v230GeneralEncapsulatedObjectFrameC2Ev,
                            __ZN6TagLib5ID3v230GeneralEncapsulatedObjectFrameD0Ev,
                            __ZN6TagLib5ID3v230GeneralEncapsulatedObjectFrameD1Ev,
                            __ZN6TagLib5ID3v230GeneralEncapsulatedObjectFrameD2Ev,
                            __ZN6TagLib5ID3v23Tag10setCommentERKNS_6StringE,
                            __ZN6TagLib5ID3v23Tag11removeFrameEPNS0_5FrameEb,
                            __ZN6TagLib5ID3v23Tag12removeFramesERKNS_10ByteVectorE,
                            __ZN6TagLib5ID3v23Tag12setTextFrameERKNS_10ByteVectorERKNS_6StringE,
                            __ZN6TagLib5ID3v23Tag13setPropertiesERKNS_11PropertyMapE,
                            __ZN6TagLib5ID3v23Tag19latin1StringHandlerEv,
                            __ZN6TagLib5ID3v23Tag22setLatin1StringHandlerEPKNS0_19Latin1StringHandlerE,
                            __ZN6TagLib5ID3v23Tag27removeUnsupportedPropertiesERKNS_10StringListE,
                            __ZN6TagLib5ID3v23Tag4readEv,
                            __ZN6TagLib5ID3v23Tag5parseERKNS_10ByteVectorE,
                            __ZN6TagLib5ID3v23Tag7setYearEj,
                            __ZN6TagLib5ID3v23Tag8addFrameEPNS0_5FrameE,
                            __ZN6TagLib5ID3v23Tag8setAlbumERKNS_6StringE,
                            __ZN6TagLib5ID3v23Tag8setGenreERKNS_6StringE,
                            __ZN6TagLib5ID3v23Tag8setTitleERKNS_6StringE,
                            __ZN6TagLib5ID3v23Tag8setTrackEj,
                            __ZN6TagLib5ID3v23Tag9setArtistERKNS_6StringE,
                            __ZN6TagLib5ID3v23TagC1EPNS_4FileElPKNS0_12FrameFactoryE,
                            __ZN6TagLib5ID3v23TagC1Ev,
                            __ZN6TagLib5ID3v23TagC2EPNS_4FileElPKNS0_12FrameFactoryE,
                            __ZN6TagLib5ID3v23TagC2Ev, __ZN6TagLib5ID3v23TagD0Ev,
                            __ZN6TagLib5ID3v23TagD1Ev, __ZN6TagLib5ID3v23TagD2Ev,
                            __ZN6TagLib5ID3v25Frame10headerSizeEj,
                            __ZN6TagLib5ID3v25Frame10headerSizeEv,
                            __ZN6TagLib5ID3v25Frame12frameIDToKeyERKNS_10ByteVectorE,
                            __ZN6TagLib5ID3v25Frame12keyToFrameIDERKNS_6StringE,
                            __ZN6TagLib5ID3v25Frame12lyricsPrefixE,
                            __ZN6TagLib5ID3v25Frame13checkEncodingERKNS_10StringListENS_6String4TypeE,
                            __ZN6TagLib5ID3v25Frame13checkEncodingERKNS_10StringListENS_6String4TypeEj,
                            __ZN6TagLib5ID3v25Frame13commentPrefixE,
                            __ZN6TagLib5ID3v25Frame13textDelimiterENS_6String4TypeE,
                            __ZN6TagLib5ID3v25Frame15readStringFieldERKNS_10ByteVectorENS_6String4TypeEPi,
                            __ZN6TagLib5ID3v25Frame15splitPropertiesERKNS_11PropertyMapERS2_S5_S5_,
                            __ZN6TagLib5ID3v25Frame16instrumentPrefixE,
                            __ZN6TagLib5ID3v25Frame18createTextualFrameERKNS_6StringERKNS_10StringListE,
                            __ZN6TagLib5ID3v25Frame5parseERKNS_10ByteVectorE,
                            __ZN6TagLib5ID3v25Frame6Header10setFrameIDERKNS_10ByteVectorE,
                            __ZN6TagLib5ID3v25Frame6Header10setVersionEj,
                            __ZN6TagLib5ID3v25Frame6Header12setFrameSizeEj,
                            __ZN6TagLib5ID3v25Frame6Header23setTagAlterPreservationEb,
                            __ZN6TagLib5ID3v25Frame6Header4sizeEj,
                            __ZN6TagLib5ID3v25Frame6Header4sizeEv,
                            __ZN6TagLib5ID3v25Frame6Header7setDataERKNS_10ByteVectorEb,
                            __ZN6TagLib5ID3v25Frame6Header7setDataERKNS_10ByteVectorEj,
                            __ZN6TagLib5ID3v25Frame6HeaderC1ERKNS_10ByteVectorEb,
                            __ZN6TagLib5ID3v25Frame6HeaderC1ERKNS_10ByteVectorEj,
                            __ZN6TagLib5ID3v25Frame6HeaderC2ERKNS_10ByteVectorEb,
                            __ZN6TagLib5ID3v25Frame6HeaderC2ERKNS_10ByteVectorEj,
                            __ZN6TagLib5ID3v25Frame6HeaderD0Ev,
                            __ZN6TagLib5ID3v25Frame6HeaderD1Ev,
                            __ZN6TagLib5ID3v25Frame6HeaderD2Ev,
                            __ZN6TagLib5ID3v25Frame7setDataERKNS_10ByteVectorE,
                            __ZN6TagLib5ID3v25Frame7setTextERKNS_6StringE,
                            __ZN6TagLib5ID3v25Frame9keyToTXXXERKNS_6StringE,
                            __ZN6TagLib5ID3v25Frame9setHeaderEPNS1_6HeaderEb,
                            __ZN6TagLib5ID3v25Frame9txxxToKeyERKNS_6StringE,
                            __ZN6TagLib5ID3v25Frame9urlPrefixE,
                            __ZN6TagLib5ID3v25FrameC2EPNS1_6HeaderE,
                            __ZN6TagLib5ID3v25FrameC2ERKNS_10ByteVectorE,
                            __ZN6TagLib5ID3v25FrameD0Ev,
                            __ZN6TagLib5ID3v25FrameD1Ev,
                            __ZN6TagLib5ID3v25FrameD2Ev,
                            __ZN6TagLib5ID3v26Footer4sizeEv,
                            __ZN6TagLib5ID3v26FooterC1Ev,
                            __ZN6TagLib5ID3v26FooterC2Ev,
                            __ZN6TagLib5ID3v26FooterD0Ev,
                            __ZN6TagLib5ID3v26FooterD1Ev,
                            __ZN6TagLib5ID3v26FooterD2Ev,
                            __ZN6TagLib5ID3v26Header10setTagSizeEj,
                            __ZN6TagLib5ID3v26Header14fileIdentifierEv,
                            __ZN6TagLib5ID3v26Header15setMajorVersionEj,
                            __ZN6TagLib5ID3v26Header4sizeEv,
                            __ZN6TagLib5ID3v26Header5parseERKNS_10ByteVectorE,
                            __ZN6TagLib5ID3v26Header7setDataERKNS_10ByteVectorE,
                            __ZN6TagLib5ID3v26HeaderC1ERKNS_10ByteVectorE,
                            __ZN6TagLib5ID3v26HeaderC1Ev,
                            __ZN6TagLib5ID3v26HeaderC2ERKNS_10ByteVectorE,
                            __ZN6TagLib5ID3v26HeaderC2Ev,
                            __ZN6TagLib5ID3v26HeaderD0Ev,
                            __ZN6TagLib5ID3v26HeaderD1Ev,
                            __ZN6TagLib5ID3v26HeaderD2Ev,
                            __ZN6TagLib5ID3v29SynchData6decodeERKNS_10ByteVectorE,
                            __ZN6TagLib5ID3v29SynchData6toUIntERKNS_10ByteVectorE,
                            __ZN6TagLib5ID3v29SynchData8fromUIntEj,
                            __ZN6TagLib5Utils7findAPEEPNS_4FileEl,
                            __ZN6TagLib5Utils9findID3v1EPNS_4FileE,
                            __ZN6TagLib5Utils9findID3v2EPNS_4FileE,
                            __ZN6TagLib5debugERKNS_6StringE,
                            __ZN6TagLib6String14WCharByteOrderE,
                            __ZN6TagLib6String3endEv, __ZN6TagLib6String4nullE,
                            __ZN6TagLib6String4swapERS0_,
                            __ZN6TagLib6String5beginEv,
                            __ZN6TagLib6String5clearEv,
                            __ZN6TagLib6String6appendERKS0_,
                            __ZN6TagLib6String6detachEv,
                            __ZN6TagLib6String6numberEi,
                            __ZN6TagLib6StringC1EPKcNS0_4TypeE,
                            __ZN6TagLib6StringC1EPKwNS0_4TypeE,
                            __ZN6TagLib6StringC1ERKNS_10ByteVectorENS0_4TypeE,
                            __ZN6TagLib6StringC1ERKNSt3__112basic_stringIcNS1_11char_traitsIcEENS1_9allocatorIcEEEENS0_4TypeE,
                            __ZN6TagLib6StringC1ERKNSt3__112basic_stringIwNS1_11char_traitsIwEENS1_9allocatorIwEEEENS0_4TypeE,
                            __ZN6TagLib6StringC1ERKS0_,
                            __ZN6TagLib6StringC1EcNS0_4TypeE,
                            __ZN6TagLib6StringC1Ev,
                            __ZN6TagLib6StringC1EwNS0_4TypeE,
                            __ZN6TagLib6StringC2EPKcNS0_4TypeE,
                            __ZN6TagLib6StringC2EPKwNS0_4TypeE,
                            __ZN6TagLib6StringC2ERKNS_10ByteVectorENS0_4TypeE,
                            __ZN6TagLib6StringC2ERKNSt3__112basic_stringIcNS1_11char_traitsIcEENS1_9allocatorIcEEEENS0_4TypeE,
                            __ZN6TagLib6StringC2ERKNSt3__112basic_stringIwNS1_11char_traitsIwEENS1_9allocatorIwEEEENS0_4TypeE,
                            __ZN6TagLib6StringC2ERKS0_,
                            __ZN6TagLib6StringC2EcNS0_4TypeE,
                            __ZN6TagLib6StringC2Ev,
                            __ZN6TagLib6StringC2EwNS0_4TypeE,
                            __ZN6TagLib6StringD0Ev, __ZN6TagLib6StringD1Ev,
                            __ZN6TagLib6StringD2Ev, __ZN6TagLib6StringaSEPKc,
                            __ZN6TagLib6StringaSEPKw,
                            __ZN6TagLib6StringaSERKNS_10ByteVectorE,
                            __ZN6TagLib6StringaSERKNSt3__112basic_stringIcNS1_11char_traitsIcEENS1_9allocatorIcEEEE,
                            __ZN6TagLib6StringaSERKNSt3__112basic_stringIwNS1_11char_traitsIwEENS1_9allocatorIwEEEE,
                            __ZN6TagLib6StringaSERKS0_, __ZN6TagLib6StringaSEc,
                            __ZN6TagLib6StringaSEw, __ZN6TagLib6StringixEi,
                            __ZN6TagLib6StringpLEPKc, __ZN6TagLib6StringpLEPKw,
                            __ZN6TagLib6StringpLERKS0_, __ZN6TagLib6StringpLEc,
                            __ZN6TagLib6StringpLEw,
                            __ZN6TagLib6Vorbis10Properties4readEPNS0_4FileE,
                            __ZN6TagLib6Vorbis10PropertiesC1EPNS0_4FileENS_15AudioProperties9ReadStyleE,
                            __ZN6TagLib6Vorbis10PropertiesC2EPNS0_4FileENS_15AudioProperties9ReadStyleE,
                            __ZN6TagLib6Vorbis10PropertiesD0Ev,
                            __ZN6TagLib6Vorbis10PropertiesD1Ev,
                            __ZN6TagLib6Vorbis10PropertiesD2Ev,
                            __ZN6TagLib6Vorbis4File13setPropertiesERKNS_11PropertyMapE,
                            __ZN6TagLib6Vorbis4File4readEb,
                            __ZN6TagLib6Vorbis4File4saveEv,
                            __ZN6TagLib6Vorbis4FileC1EPKcbNS_15AudioProperties9ReadStyleE,
                            __ZN6TagLib6Vorbis4FileC1EPNS_8IOStreamEbNS_15AudioProperties9ReadStyleE,
                            __ZN6TagLib6Vorbis4FileC2EPKcbNS_15AudioProperties9ReadStyleE,
                            __ZN6TagLib6Vorbis4FileC2EPNS_8IOStreamEbNS_15AudioProperties9ReadStyleE,
                            __ZN6TagLib6Vorbis4FileD0Ev,
                            __ZN6TagLib6Vorbis4FileD1Ev,
                            __ZN6TagLib6Vorbis4FileD2Ev,
                            __ZN6TagLib7FileRef19addFileTypeResolverEPKNS0_16FileTypeResolverE,
                            __ZN6TagLib7FileRef21defaultFileExtensionsEv,
                            __ZN6TagLib7FileRef4saveEv,
                            __ZN6TagLib7FileRef4swapERS0_,
                            __ZN6TagLib7FileRef6createEPKcbNS_15AudioProperties9ReadStyleE,
                            __ZN6TagLib7FileRefC1EPKcbNS_15AudioProperties9ReadStyleE,
                            __ZN6TagLib7FileRefC1EPNS_4FileE,
                            __ZN6TagLib7FileRefC1EPNS_8IOStreamEbNS_15AudioProperties9ReadStyleE,
                            __ZN6TagLib7FileRefC1ERKS0_, __ZN6TagLib7FileRefC1Ev,
                            __ZN6TagLib7FileRefC2EPKcbNS_15AudioProperties9ReadStyleE,
                            __ZN6TagLib7FileRefC2EPNS_4FileE,
                            __ZN6TagLib7FileRefC2EPNS_8IOStreamEbNS_15AudioProperties9ReadStyleE,
                            __ZN6TagLib7FileRefC2ERKS0_, __ZN6TagLib7FileRefC2Ev,
                            __ZN6TagLib7FileRefD0Ev, __ZN6TagLib7FileRefD1Ev,
                            __ZN6TagLib7FileRefD2Ev, __ZN6TagLib7FileRefaSERKS0_,
                            __ZN6TagLib7WavPack10Properties14seekFinalIndexEPNS0_4FileEl,
                            __ZN6TagLib7WavPack10Properties4readEPNS0_4FileEl,
                            __ZN6TagLib7WavPack10PropertiesC1EPNS0_4FileElNS_15AudioProperties9ReadStyleE,
                            __ZN6TagLib7WavPack10PropertiesC1ERKNS_10ByteVectorElNS_15AudioProperties9ReadStyleE,
                            __ZN6TagLib7WavPack10PropertiesC2EPNS0_4FileElNS_15AudioProperties9ReadStyleE,
                            __ZN6TagLib7WavPack10PropertiesC2ERKNS_10ByteVectorElNS_15AudioProperties9ReadStyleE,
                            __ZN6TagLib7WavPack10PropertiesD0Ev,
                            __ZN6TagLib7WavPack10PropertiesD1Ev,
                            __ZN6TagLib7WavPack10PropertiesD2Ev,
                            __ZN6TagLib7WavPack4File13setPropertiesERKNS_11PropertyMapE,
                            __ZN6TagLib7WavPack4File27removeUnsupportedPropertiesERKNS_10StringListE,
                            __ZN6TagLib7WavPack4File4readEb,
                            __ZN6TagLib7WavPack4File4saveEv,
                            __ZN6TagLib7WavPack4File5stripEi,
                            __ZN6TagLib7WavPack4File6APETagEb,
                            __ZN6TagLib7WavPack4File8ID3v1TagEb,
                            __ZN6TagLib7WavPack4FileC1EPKcbNS_15AudioProperties9ReadStyleE,
                            __ZN6TagLib7WavPack4FileC1EPNS_8IOStreamEbNS_15AudioProperties9ReadStyleE,
                            __ZN6TagLib7WavPack4FileC2EPKcbNS_15AudioProperties9ReadStyleE,
                            __ZN6TagLib7WavPack4FileC2EPNS_8IOStreamEbNS_15AudioProperties9ReadStyleE,
                            __ZN6TagLib7WavPack4FileD0Ev,
                            __ZN6TagLib7WavPack4FileD1Ev,
                            __ZN6TagLib7WavPack4FileD2Ev,
                            __ZN6TagLib8IOStream5clearEv,
                            __ZN6TagLib8IOStreamC2Ev, __ZN6TagLib8IOStreamD0Ev,
                            __ZN6TagLib8IOStreamD1Ev, __ZN6TagLib8IOStreamD2Ev,
                            __ZN6TagLib8TagUnion10setCommentERKNS_6StringE,
                            __ZN6TagLib8TagUnion27removeUnsupportedPropertiesERKNS_10StringListE,
                            __ZN6TagLib8TagUnion3setEiPNS_3TagE,
                            __ZN6TagLib8TagUnion7setYearEj,
                            __ZN6TagLib8TagUnion8setAlbumERKNS_6StringE,
                            __ZN6TagLib8TagUnion8setGenreERKNS_6StringE,
                            __ZN6TagLib8TagUnion8setTitleERKNS_6StringE,
                            __ZN6TagLib8TagUnion8setTrackEj,
                            __ZN6TagLib8TagUnion9setArtistERKNS_6StringE,
                            __ZN6TagLib8TagUnionC1EPNS_3TagES2_S2_,
                            __ZN6TagLib8TagUnionC2EPNS_3TagES2_S2_,
                            __ZN6TagLib8TagUnionD0Ev, __ZN6TagLib8TagUnionD1Ev,
                            __ZN6TagLib8TagUnionD2Ev,
                            __ZN6TagLib9TrueAudio10Properties4readERKNS_10ByteVectorEl,
                            __ZN6TagLib9TrueAudio10PropertiesC1ERKNS_10ByteVectorElNS_15AudioProperties9ReadStyleE,
                            __ZN6TagLib9TrueAudio10PropertiesC2ERKNS_10ByteVectorElNS_15AudioProperties9ReadStyleE,
                            __ZN6TagLib9TrueAudio10PropertiesD0Ev,
                            __ZN6TagLib9TrueAudio10PropertiesD1Ev,
                            __ZN6TagLib9TrueAudio10PropertiesD2Ev,
                            __ZN6TagLib9TrueAudio4File13setPropertiesERKNS_11PropertyMapE,
                            __ZN6TagLib9TrueAudio4File20setID3v2FrameFactoryEPKNS_5ID3v212FrameFactoryE,
                            __ZN6TagLib9TrueAudio4File27removeUnsupportedPropertiesERKNS_10StringListE,
                            __ZN6TagLib9TrueAudio4File4readEb,
                            __ZN6TagLib9TrueAudio4File4saveEv,
                            __ZN6TagLib9TrueAudio4File5stripEi,
                            __ZN6TagLib9TrueAudio4File8ID3v1TagEb,
                            __ZN6TagLib9TrueAudio4File8ID3v2TagEb,
                            __ZN6TagLib9TrueAudio4FileC1EPKcPNS_5ID3v212FrameFactoryEbNS_15AudioProperties9ReadStyleE,
                            __ZN6TagLib9TrueAudio4FileC1EPKcbNS_15AudioProperties9ReadStyleE,
                            __ZN6TagLib9TrueAudio4FileC1EPNS_8IOStreamEPNS_5ID3v212FrameFactoryEbNS_15AudioProperties9ReadStyleE,
                            __ZN6TagLib9TrueAudio4FileC1EPNS_8IOStreamEbNS_15AudioProperties9ReadStyleE,
                            __ZN6TagLib9TrueAudio4FileC2EPKcPNS_5ID3v212FrameFactoryEbNS_15AudioProperties9ReadStyleE,
                            __ZN6TagLib9TrueAudio4FileC2EPKcbNS_15AudioProperties9ReadStyleE,
                            __ZN6TagLib9TrueAudio4FileC2EPNS_8IOStreamEPNS_5ID3v212FrameFactoryEbNS_15AudioProperties9ReadStyleE,
                            __ZN6TagLib9TrueAudio4FileC2EPNS_8IOStreamEbNS_15AudioProperties9ReadStyleE,
                            __ZN6TagLib9TrueAudio4FileD0Ev,
                            __ZN6TagLib9TrueAudio4FileD1Ev,
                            __ZN6TagLib9TrueAudio4FileD2Ev,
                            __ZN6TagLib9debugDataERKNS_10ByteVectorE,
                            __ZN7NoReuseC1ER16UsageEnvironment,
                            __ZN7NoReuseC2ER16UsageEnvironment, __ZN7NoReuseD1Ev,
                            __ZN7NoReuseD2Ev, __ZN7RTPSink10auxSDPLineEv,
                            __ZN7RTPSink12lookupByNameER16UsageEnvironmentPKcRPS_,
                            __ZN7RTPSink15getTotalBitrateERjRd,
                            __ZN7RTPSink19presetNextTimestampEv,
                            __ZN7RTPSink21convertToRTPTimestampE7timeval,
                            __ZN7RTPSink22resetPresentationTimesEv,
                            __ZN7RTPSinkC2ER16UsageEnvironmentP9GroupsockhjPKcj,
                            __ZN7RTPSinkD0Ev, __ZN7RTPSinkD1Ev, __ZN7RTPSinkD2Ev,
                            __ZN7Segment10headerSizeE, __ZN7Segment8dataHereEv,
                            __ZN7TimevalmIERK13DelayInterval,
                            __ZN7TimevalpLERK13DelayInterval,
                            __ZN7Unicode18ConvertUTF16toUTF8EPPKwS1_PPhS3_NS_15ConversionFlagsE,
                            __ZN7Unicode18ConvertUTF8toUTF16EPPKhS1_PPwS3_NS_15ConversionFlagsE,
                            __ZN7Unicode19isLegalUTF8SequenceEPKhS1_,
                            __ZN7_Tables12getOurTablesER16UsageEnvironmenth,
                            __ZN7_Tables17reclaimIfPossibleEv,
                            __ZN7_TablesC1ER16UsageEnvironment,
                            __ZN7_TablesC2ER16UsageEnvironment, __ZN7_TablesD0Ev,
                            __ZN7_TablesD1Ev, __ZN7_TablesD2Ev,
                            __ZN7libebml10EbmlBinary10RenderDataERNS_10IOCallbackEbb,
                            __ZN7libebml10EbmlBinary10UpdateSizeEbb,
                            __ZN7libebml10EbmlBinary8ReadDataERNS_10IOCallbackENS_9ScopeModeE,
                            __ZN7libebml10EbmlBinaryC2ERKS0_,
                            __ZN7libebml10EbmlBinaryC2Ev,
                            __ZN7libebml10EbmlBinaryD0Ev,
                            __ZN7libebml10EbmlBinaryD1Ev,
                            __ZN7libebml10EbmlBinaryD2Ev,
                            __ZN7libebml10EbmlMaster10RenderDataERNS_10IOCallbackEbb,
                            __ZN7libebml10EbmlMaster10UpdateSizeEbb,
                            __ZN7libebml10EbmlMaster11FindNextEltERKNS_11EbmlElementEb,
                            __ZN7libebml10EbmlMaster11PushElementERNS_11EbmlElementE,
                            __ZN7libebml10EbmlMaster12FindFirstEltERKNS_13EbmlCallbacksEb,
                            __ZN7libebml10EbmlMaster13InsertElementERNS_11EbmlElementERKS1_,
                            __ZN7libebml10EbmlMaster13InsertElementERNS_11EbmlElementEm,
                            __ZN7libebml10EbmlMaster16ProcessMandatoryEv,
                            __ZN7libebml10EbmlMaster22FindAllMissingElementsEv,
                            __ZN7libebml10EbmlMaster4ReadERNS_10EbmlStreamERKNS_19EbmlSemanticContextERiRPNS_11EbmlElementEbNS_9ScopeModeE,
                            __ZN7libebml10EbmlMaster4SortEv,
                            __ZN7libebml10EbmlMaster6RemoveERNSt3__111__wrap_iterIPPNS_11EbmlElementEEE,
                            __ZN7libebml10EbmlMaster6RemoveERNSt3__116reverse_iteratorINS1_11__wrap_iterIPPNS_11EbmlElementEEEEE,
                            __ZN7libebml10EbmlMaster6RemoveEm,
                            __ZN7libebml10EbmlMaster8ReadDataERNS_10IOCallbackENS_9ScopeModeE,
                            __ZN7libebml10EbmlMaster9AddNewEltERKNS_13EbmlCallbacksE,
                            __ZN7libebml10EbmlMaster9WriteHeadERNS_10IOCallbackEib,
                            __ZN7libebml10EbmlMasterC2ERKNS_19EbmlSemanticContextEb,
                            __ZN7libebml10EbmlMasterC2ERKS0_,
                            __ZN7libebml10EbmlMasterD0Ev,
                            __ZN7libebml10EbmlMasterD1Ev,
                            __ZN7libebml10EbmlMasterD2Ev,
                            __ZN7libebml10EbmlStream10FindNextIDERKNS_13EbmlCallbacksEy,
                            __ZN7libebml10EbmlStream15FindNextElementERKNS_19EbmlSemanticContextERiybj,
                            __ZN7libebml10EbmlStreamC1ERNS_10IOCallbackE,
                            __ZN7libebml10EbmlStreamC2ERNS_10IOCallbackE,
                            __ZN7libebml10EbmlString10RenderDataERNS_10IOCallbackEbb,
                            __ZN7libebml10EbmlString10UpdateSizeEbb,
                            __ZN7libebml10EbmlString15SetDefaultValueERNSt3__112basic_stringIcNS1_11char_traitsIcEENS1_9allocatorIcEEEE,
                            __ZN7libebml10EbmlString8ReadDataERNS_10IOCallbackENS_9ScopeModeE,
                            __ZN7libebml10EbmlString8SetValueERKNSt3__112basic_stringIcNS1_11char_traitsIcEENS1_9allocatorIcEEEE,
                            __ZN7libebml10EbmlStringC2ERKNSt3__112basic_stringIcNS1_11char_traitsIcEENS1_9allocatorIcEEEE,
                            __ZN7libebml10EbmlStringC2Ev,
                            __ZN7libebml10EbmlStringaSERKNSt3__112basic_stringIcNS1_11char_traitsIcEENS1_9allocatorIcEEEE,
                            __ZN7libebml10IOCallback10writeFullyEPKvm,
                            __ZN7libebml10IOCallback9readFullyEPvm,
                            __ZN7libebml11EbmlElement10FindNextIDERNS_10IOCallbackERKNS_13EbmlCallbacksEy,
                            __ZN7libebml11EbmlElement10RenderHeadERNS_10IOCallbackEbbb,
                            __ZN7libebml11EbmlElement13OverwriteDataERNS_10IOCallbackEb,
                            __ZN7libebml11EbmlElement13OverwriteHeadERNS_10IOCallbackEb,
                            __ZN7libebml11EbmlElement14MakeRenderHeadERNS_10IOCallbackEb,
                            __ZN7libebml11EbmlElement15CompareElementsEPKS0_S2_,
                            __ZN7libebml11EbmlElement15FindNextElementERNS_10IOCallbackERKNS_19EbmlSemanticContextERiybj,
                            __ZN7libebml11EbmlElement25CreateElementUsingContextERKNS_6EbmlIdERKNS_19EbmlSemanticContextERibbj,
                            __ZN7libebml11EbmlElement4ReadERNS_10EbmlStreamERKNS_19EbmlSemanticContextERiRPS0_bNS_9ScopeModeE,
                            __ZN7libebml11EbmlElement6RenderERNS_10IOCallbackEbbb,
                            __ZN7libebml11EbmlElement6VoidMeERNS_10IOCallbackEb,
                            __ZN7libebml11EbmlElement8SkipDataERNS_10EbmlStreamERKNS_19EbmlSemanticContextEPS0_b,
                            __ZN7libebml11EbmlElement9ForceSizeEy,
                            __ZN7libebml11EbmlElementC2Eyb,
                            __ZN7libebml11EbmlElementD0Ev,
                            __ZN7libebml11EbmlElementD1Ev,
                            __ZN7libebml11EbmlElementD2Ev,
                            __ZN7libebml12EMaxIdLength10ClassInfosE,
                            __ZN7libebml12EMaxIdLengthC1Ev,
                            __ZN7libebml12EMaxIdLengthC2Ev,
                            __ZN7libebml12EReadVersion10ClassInfosE,
                            __ZN7libebml12EReadVersionC1Ev,
                            __ZN7libebml12EReadVersionC2Ev,
                            __ZN7libebml12EbmlSInteger10RenderDataERNS_10IOCallbackEbb,
                            __ZN7libebml12EbmlSInteger10UpdateSizeEbb,
                            __ZN7libebml12EbmlSInteger8ReadDataERNS_10IOCallbackENS_9ScopeModeE,
                            __ZN7libebml12EbmlSInteger8SetValueEx,
                            __ZN7libebml12EbmlSIntegerC2Ev,
                            __ZN7libebml12EbmlSIntegerC2Ex,
                            __ZN7libebml12EbmlUInteger10RenderDataERNS_10IOCallbackEbb,
                            __ZN7libebml12EbmlUInteger10UpdateSizeEbb,
                            __ZN7libebml12EbmlUInteger15SetDefaultValueEy,
                            __ZN7libebml12EbmlUInteger8ReadDataERNS_10IOCallbackENS_9ScopeModeE,
                            __ZN7libebml12EbmlUInteger8SetValueEy,
                            __ZN7libebml12EbmlUIntegerC2Ev,
                            __ZN7libebml12EbmlUIntegerC2Ey,
                            __ZN7libebml13EbmlCallbacksC1EPFRNS_11EbmlElementEvERKNS_6EbmlIdEPKcRKNS_19EbmlSemanticContextE,
                            __ZN7libebml13EbmlCallbacksC2EPFRNS_11EbmlElementEvERKNS_6EbmlIdEPKcRKNS_19EbmlSemanticContextE,
                            __ZN7libebml13MemIOCallback14setFilePointerExNS_9seek_modeE,
                            __ZN7libebml13MemIOCallback4readEPvm,
                            __ZN7libebml13MemIOCallback5writeEPKvm,
                            __ZN7libebml13MemIOCallback5writeERNS_10IOCallbackEm,
                            __ZN7libebml13MemIOCallbackC1Ey,
                            __ZN7libebml13MemIOCallbackC2Ey,
                            __ZN7libebml13MemIOCallbackD0Ev,
                            __ZN7libebml13MemIOCallbackD1Ev,
                            __ZN7libebml13MemIOCallbackD2Ev,
                            __ZN7libebml13StdIOCallback14getFilePointerEv,
                            __ZN7libebml13StdIOCallback14setFilePointerExNS_9seek_modeE,
                            __ZN7libebml13StdIOCallback4readEPvm,
                            __ZN7libebml13StdIOCallback5closeEv,
                            __ZN7libebml13StdIOCallback5writeEPKvm,
                            __ZN7libebml13StdIOCallbackC1EPKc9open_mode,
                            __ZN7libebml13StdIOCallbackC2EPKc9open_mode,
                            __ZN7libebml13StdIOCallbackD0Ev,
                            __ZN7libebml13StdIOCallbackD1Ev,
                            __ZN7libebml13StdIOCallbackD2Ev,
                            __ZN7libebml14EMaxSizeLength10ClassInfosE,
                            __ZN7libebml14EMaxSizeLengthC1Ev,
                            __ZN7libebml14EMaxSizeLengthC2Ev,
                            __ZN7libebml15CodedSizeLengthEyjb,
                            __ZN7libebml15EDocTypeVersion10ClassInfosE,
                            __ZN7libebml15EDocTypeVersionC1Ev,
                            __ZN7libebml15EDocTypeVersionC2Ev,
                            __ZN7libebml16CodedValueLengthEyiPh,
                            __ZN7libebml16EbmlHead_ContextE,
                            __ZN7libebml17EbmlUnicodeString10RenderDataERNS_10IOCallbackEbb,
                            __ZN7libebml17EbmlUnicodeString10UpdateSizeEbb,
                            __ZN7libebml17EbmlUnicodeString12SetValueUTF8ERKNSt3__112basic_stringIcNS1_11char_traitsIcEENS1_9allocatorIcEEEE,
                            __ZN7libebml17EbmlUnicodeString15SetDefaultValueERNS_9UTFstringE,
                            __ZN7libebml17EbmlUnicodeString8ReadDataERNS_10IOCallbackENS_9ScopeModeE,
                            __ZN7libebml17EbmlUnicodeString8SetValueERKNS_9UTFstringE,
                            __ZN7libebml17EbmlUnicodeStringC2ERKNS_9UTFstringE,
                            __ZN7libebml17EbmlUnicodeStringC2Ev,
                            __ZN7libebml17EbmlUnicodeStringaSERKNS_9UTFstringE,
                            __ZN7libebml17MemReadIOCallback14setFilePointerExNS_9seek_modeE,
                            __ZN7libebml17MemReadIOCallback4InitEPKvm,
                            __ZN7libebml17MemReadIOCallback4readEPvm,
                            __ZN7libebml17MemReadIOCallbackC1EPKvm,
                            __ZN7libebml17MemReadIOCallbackC1ERKNS_10EbmlBinaryE,
                            __ZN7libebml17MemReadIOCallbackC1ERKS0_,
                            __ZN7libebml17MemReadIOCallbackC2EPKvm,
                            __ZN7libebml17MemReadIOCallbackC2ERKNS_10EbmlBinaryE,
                            __ZN7libebml17MemReadIOCallbackC2ERKS0_,
                            __ZN7libebml18Context_EbmlGlobalE,
                            __ZN7libebml18ReadCodedSizeValueEPKhRjRy,
                            __ZN7libebml18SafeReadIOCallback11GetUInt16BEEv,
                            __ZN7libebml18SafeReadIOCallback11GetUInt24BEEv,
                            __ZN7libebml18SafeReadIOCallback11GetUInt32BEEv,
                            __ZN7libebml18SafeReadIOCallback11GetUInt64BEEv,
                            __ZN7libebml18SafeReadIOCallback12EndOfStreamXC1Em,
                            __ZN7libebml18SafeReadIOCallback12EndOfStreamXC2Em,
                            __ZN7libebml18SafeReadIOCallback4InitEPNS_10IOCallbackEb,
                            __ZN7libebml18SafeReadIOCallback4ReadEPvm,
                            __ZN7libebml18SafeReadIOCallback4SeekEm,
                            __ZN7libebml18SafeReadIOCallback4SkipEm,
                            __ZN7libebml18SafeReadIOCallback8GetUInt8Ev,
                            __ZN7libebml18SafeReadIOCallback9GetUIntBEEm,
                            __ZN7libebml18SafeReadIOCallbackC1EPKvm,
                            __ZN7libebml18SafeReadIOCallbackC1EPNS_10IOCallbackEb,
                            __ZN7libebml18SafeReadIOCallbackC1ERKNS_10EbmlBinaryE,
                            __ZN7libebml18SafeReadIOCallbackC2EPKvm,
                            __ZN7libebml18SafeReadIOCallbackC2EPNS_10IOCallbackEb,
                            __ZN7libebml18SafeReadIOCallbackC2ERKNS_10EbmlBinaryE,
                            __ZN7libebml18SafeReadIOCallbackD1Ev,
                            __ZN7libebml18SafeReadIOCallbackD2Ev,
                            __ZN7libebml19EDocTypeReadVersion10ClassInfosE,
                            __ZN7libebml19EDocTypeReadVersionC1Ev,
                            __ZN7libebml19EDocTypeReadVersionC2Ev,
                            __ZN7libebml21CodedSizeLengthSignedExj,
                            __ZN7libebml21GetEbmlGlobal_ContextEv,
                            __ZN7libebml22CodedValueLengthSignedExiPh,
                            __ZN7libebml24ReadCodedSizeSignedValueEPKhRjRy,
                            __ZN7libebml8CRTErrorC1ERKNSt3__112basic_stringIcNS1_11char_traitsIcEENS1_9allocatorIcEEEEi,
                            __ZN7libebml8CRTErrorC1EiRKNSt3__112basic_stringIcNS1_11char_traitsIcEENS1_9allocatorIcEEEE,
                            __ZN7libebml8CRTErrorC2ERKNSt3__112basic_stringIcNS1_11char_traitsIcEENS1_9allocatorIcEEEEi,
                            __ZN7libebml8CRTErrorC2EiRKNSt3__112basic_stringIcNS1_11char_traitsIcEENS1_9allocatorIcEEEE,
                            __ZN7libebml8EDocType10ClassInfosE,
                            __ZN7libebml8EDocTypeC1Ev, __ZN7libebml8EDocTypeC2Ev,
                            __ZN7libebml8EVersion10ClassInfosE,
                            __ZN7libebml8EVersionC1Ev, __ZN7libebml8EVersionC2Ev,
                            __ZN7libebml8EbmlDate10RenderDataERNS_10IOCallbackEbb,
                            __ZN7libebml8EbmlDate14UnixEpochDelayE,
                            __ZN7libebml8EbmlDate8ReadDataERNS_10IOCallbackENS_9ScopeModeE,
                            __ZN7libebml8EbmlDateC2ERKS0_,
                            __ZN7libebml8EbmlHead10ClassInfosE,
                            __ZN7libebml8EbmlHeadC1Ev, __ZN7libebml8EbmlHeadC2Ev,
                            __ZN7libebml8EbmlVoid10ClassInfosE,
                            __ZN7libebml8EbmlVoid10RenderDataERNS_10IOCallbackEbb,
                            __ZN7libebml8EbmlVoid11ReplaceWithERNS_11EbmlElementERNS_10IOCallbackEbb,
                            __ZN7libebml8EbmlVoid9OverwriteERKNS_11EbmlElementERNS_10IOCallbackEbb,
                            __ZN7libebml8EbmlVoidC1Ev, __ZN7libebml8EbmlVoidC2Ev,
                            __ZN7libebml9EbmlCrc3210ClassInfosE,
                            __ZN7libebml9EbmlCrc3210RenderDataERNS_10IOCallbackEbb,
                            __ZN7libebml9EbmlCrc3210UpdateByteEh,
                            __ZN7libebml9EbmlCrc3215AddElementCRC32ERNS_11EbmlElementE,
                            __ZN7libebml9EbmlCrc3217CheckElementCRC32ERNS_11EbmlElementE,
                            __ZN7libebml9EbmlCrc325m_tabE,
                            __ZN7libebml9EbmlCrc326UpdateEPKhj,
                            __ZN7libebml9EbmlCrc328CheckCRCEjPKhj,
                            __ZN7libebml9EbmlCrc328FinalizeEv,
                            __ZN7libebml9EbmlCrc328ReadDataERNS_10IOCallbackENS_9ScopeModeE,
                            __ZN7libebml9EbmlCrc328ResetCRCEv,
                            __ZN7libebml9EbmlCrc329FillCRC32EPKhj,
                            __ZN7libebml9EbmlCrc32C1ERKS0_,
                            __ZN7libebml9EbmlCrc32C1Ev,
                            __ZN7libebml9EbmlCrc32C2ERKS0_,
                            __ZN7libebml9EbmlCrc32C2Ev,
                            __ZN7libebml9EbmlDummy10ClassInfosE,
                            __ZN7libebml9EbmlDummy10DummyRawIdE,
                            __ZN7libebml9EbmlDummycvRKNS_6EbmlIdEEv,
                            __ZN7libebml9EbmlFloat10RenderDataERNS_10IOCallbackEbb,
                            __ZN7libebml9EbmlFloat10UpdateSizeEbb,
                            __ZN7libebml9EbmlFloat15SetDefaultValueEd,
                            __ZN7libebml9EbmlFloat8ReadDataERNS_10IOCallbackENS_9ScopeModeE,
                            __ZN7libebml9EbmlFloat8SetValueEd,
                            __ZN7libebml9EbmlFloatC2ENS0_9PrecisionE,
                            __ZN7libebml9EbmlFloatC2EdNS0_9PrecisionE,
                            __ZN7libebml9UTFstring14UpdateFromUCS2Ev,
                            __ZN7libebml9UTFstring14UpdateFromUTF8Ev,
                            __ZN7libebml9UTFstring15wcscmp_internalEPKwS2_,
                            __ZN7libebml9UTFstring7SetUTF8ERKNSt3__112basic_stringIcNS1_11char_traitsIcEENS1_9allocatorIcEEEE,
                            __ZN7libebml9UTFstringC1EPKw,
                            __ZN7libebml9UTFstringC1ERKNSt3__112basic_stringIwNS1_11char_traitsIwEENS1_9allocatorIwEEEE,
                            __ZN7libebml9UTFstringC1ERKS0_,
                            __ZN7libebml9UTFstringC1Ev,
                            __ZN7libebml9UTFstringC2EPKw,
                            __ZN7libebml9UTFstringC2ERKNSt3__112basic_stringIwNS1_11char_traitsIwEENS1_9allocatorIwEEEE,
                            __ZN7libebml9UTFstringC2ERKS0_,
                            __ZN7libebml9UTFstringC2Ev,
                            __ZN7libebml9UTFstringD0Ev,
                            __ZN7libebml9UTFstringD1Ev,
                            __ZN7libebml9UTFstringD2Ev,
                            __ZN7libebml9UTFstringaSEPKw,
                            __ZN7libebml9UTFstringaSERKS0_,
                            __ZN7libebml9UTFstringaSEw,
                            __ZN8CBFormat12InsertStreamEPfjj,
                            __ZN8CBFormat13ExtractStreamEPfjj,
                            __ZN8CBFormat14GetSampleCountEv,
                            __ZN8CBFormat5ResetEv, __ZN8CBFormat7RefreshEv,
                            __ZN8CBFormat9ConfigureEjbj, __ZN8CBFormatC1Ev,
                            __ZN8CBFormatC2Ev, __ZN8CBFormataSERKS_,
                            __ZN8CBFormatdVERKS_, __ZN8CBFormatdVERKf,
                            __ZN8CBFormateqERKS_, __ZN8CBFormatmIERKS_,
                            __ZN8CBFormatmIERKf, __ZN8CBFormatmLERKS_,
                            __ZN8CBFormatmLERKf, __ZN8CBFormatneERKS_,
                            __ZN8CBFormatpLERKS_, __ZN8CBFormatpLERKf,
                            __ZN8GroupEId4initERK7in_addrS2_th,
                            __ZN8GroupEIdC1ERK7in_addrS2_t,
                            __ZN8GroupEIdC1ERK7in_addrth,
                            __ZN8GroupEIdC2ERK7in_addrS2_t,
                            __ZN8GroupEIdC2ERK7in_addrth, __ZN8SDESItemC1EhPKh,
                            __ZN8SDESItemC2EhPKh, __ZN8TimeCodeC1Ev,
                            __ZN8TimeCodeC2Ev, __ZN8TimeCodeD0Ev,
                            __ZN8TimeCodeD1Ev, __ZN8TimeCodeD2Ev,
                            __ZN8TimeCodeeqERKS_,
                            __ZN9BitVector13get_expGolombEv,
                            __ZN9BitVector5setupEPhjj, __ZN9BitVector7get1BitEv,
                            __ZN9BitVector7getBitsEj, __ZN9BitVector7put1BitEj,
                            __ZN9BitVector7putBitsEjj, __ZN9BitVector8skipBitsEj,
                            __ZN9BitVectorC1EPhjj, __ZN9BitVectorC2EPhjj,
                            __ZN9Groupsock10handleReadEPhjRjR11sockaddr_in,
                            __ZN9Groupsock13statsIncomingE,
                            __ZN9Groupsock13statsOutgoingE,
                            __ZN9Groupsock14addDestinationERK7in_addrRK4Portj,
                            __ZN9Groupsock17multicastSendOnlyEv,
                            __ZN9Groupsock17removeDestinationEj,
                            __ZN9Groupsock19createNewDestRecordERK7in_addrRK4PorthjP10destRecord,
                            __ZN9Groupsock19wasLoopedBackFromUsER16UsageEnvironmentR11sockaddr_in,
                            __ZN9Groupsock20statsRelayedIncomingE,
                            __ZN9Groupsock20statsRelayedOutgoingE,
                            __ZN9Groupsock21removeAllDestinationsEv,
                            __ZN9Groupsock21removeDestinationFromERP10destRecordj,
                            __ZN9Groupsock24outputToAllMembersExceptEP20DirectedNetInterfacehPhjj,
                            __ZN9Groupsock27changeDestinationParametersERK7in_addr4Portij,
                            __ZN9Groupsock6outputER16UsageEnvironmentPhjP20DirectedNetInterface,
                            __ZN9GroupsockC1ER16UsageEnvironmentRK7in_addr4Porth,
                            __ZN9GroupsockC1ER16UsageEnvironmentRK7in_addrS4_4Port,
                            __ZN9GroupsockC2ER16UsageEnvironmentRK7in_addr4Porth,
                            __ZN9GroupsockC2ER16UsageEnvironmentRK7in_addrS4_4Port,
                            __ZN9GroupsockD0Ev, __ZN9GroupsockD1Ev,
                            __ZN9GroupsockD2Ev, __ZN9HashTable10RemoveNextEv,
                            __ZN9HashTable6createEi,
                            __ZN9HashTable8Iterator6createERKS_,
                            __ZN9HashTable8IteratorC2Ev,
                            __ZN9HashTable8IteratorD0Ev,
                            __ZN9HashTable8IteratorD1Ev,
                            __ZN9HashTable8IteratorD2Ev,
                            __ZN9HashTable8getFirstEv, __ZN9HashTableC2Ev,
                            __ZN9HashTableD0Ev, __ZN9HashTableD1Ev,
                            __ZN9HashTableD2Ev, __ZN9MediaSink11stopPlayingEv,
                            __ZN9MediaSink12lookupByNameER16UsageEnvironmentPKcRPS_,
                            __ZN9MediaSink12startPlayingER11MediaSourcePFvPvES2_,
                            __ZN9MediaSink15onSourceClosureEPv,
                            __ZN9MediaSink15onSourceClosureEv,
                            __ZN9MediaSink24sourceIsCompatibleWithUsER11MediaSource,
                            __ZN9MediaSinkC2ER16UsageEnvironment,
                            __ZN9MediaSinkD0Ev, __ZN9MediaSinkD1Ev,
                            __ZN9MediaSinkD2Ev,
                            __ZN9RTPSource12lookupByNameER16UsageEnvironmentPKcRPS_,
                            __ZN9RTPSource28hasBeenSynchronizedUsingRTCPEv,
                            __ZN9RTPSourceC2ER16UsageEnvironmentP9Groupsockhj,
                            __ZN9RTPSourceD0Ev, __ZN9RTPSourceD1Ev,
                            __ZN9RTPSourceD2Ev, __ZN9SOFA_HRTF3getEffPPf,
                            __ZN9SOFA_HRTFC1ENSt3__112basic_stringIcNS0_11char_traitsIcEENS0_9allocatorIcEEEEj,
                            __ZN9SOFA_HRTFC2ENSt3__112basic_stringIcNS0_11char_traitsIcEENS0_9allocatorIcEEEEj,
                            __ZN9SOFA_HRTFD0Ev, __ZN9SOFA_HRTFD1Ev,
                            __ZN9SOFA_HRTFD2Ev,
                            __ZNK10CSoundFile10S3MConvertEP11_MODCOMMANDb,
                            __ZNK10CSoundFile13GetCurrentPosEv,
                            __ZNK10CSoundFile13GetNNAChannelEj,
                            __ZNK10CSoundFile13GetSampleNameEjPc,
                            __ZNK10CSoundFile14GetMaxPositionEv,
                            __ZNK10CSoundFile14GetNumChannelsEv,
                            __ZNK10CSoundFile14GetNumPatternsEv,
                            __ZNK10CSoundFile14GetPatternNameEjPcj,
                            __ZNK10CSoundFile14GetSaveFormatsEv,
                            __ZNK10CSoundFile14IsSongFinishedEjj,
                            __ZNK10CSoundFile14ModSaveCommandEPK11_MODCOMMANDb,
                            __ZNK10CSoundFile14S3MSaveConvertEPjS0_b,
                            __ZNK10CSoundFile17ConvertModCommandEP11_MODCOMMAND,
                            __ZNK10CSoundFile17CutOffToFrequencyEji,
                            __ZNK10CSoundFile17GetBestSaveFormatEv,
                            __ZNK10CSoundFile17GetFreqFromPeriodEjji,
                            __ZNK10CSoundFile17GetInstrumentNameEjPc,
                            __ZNK10CSoundFile17GetNoteFromPeriodEj,
                            __ZNK10CSoundFile17GetNumInstrumentsEv,
                            __ZNK10CSoundFile17GetPeriodFromNoteEjij,
                            __ZNK10CSoundFile18SetupChannelFilterEP11_MODCHANNELbi,
                            __ZNK10CSoundFile19IsValidBackwardJumpEjjjj,
                            __ZNK10RTSPClient10sessionURLERK12MediaSession,
                            __ZNK10RTSPClient12isRTSPClientEv,
                            __ZNK10RTSPServer12isRTSPServerEv,
                            __ZNK10RTSPServer13rtspURLPrefixEi,
                            __ZNK10RTSPServer17httpServerPortNumEv,
                            __ZNK10RTSPServer7rtspURLEPK18ServerMediaSessioni,
                            __ZNK11MediaSource11isRTPSourceEv,
                            __ZNK11MediaSource13getAttributesEv,
                            __ZNK11MediaSource14isFramedSourceEv,
                            __ZNK11MediaSource16isAMRAudioSourceEv,
                            __ZNK11MediaSource17isJPEGVideoSourceEv,
                            __ZNK11MediaSource21isDVVideoStreamFramerEv,
                            __ZNK11MediaSource23isH264VideoStreamFramerEv,
                            __ZNK11MediaSource23isH265VideoStreamFramerEv,
                            __ZNK11MediaSource24isMPEG4VideoStreamFramerEv,
                            __ZNK11MediaSource27isMPEG1or2VideoStreamFramerEv,
                            __ZNK11MediaSource8MIMEtypeEv,
                            __ZNK11MediaSource8isSourceEv,
                            __ZNK11TextRTPSink12sdpMediaTypeEv,
                            __ZNK11libmatroska10KaxCluster11GetPositionEv,
                            __ZNK11libmatroska10KaxCluster14GlobalTimecodeEv,
                            __ZNK11libmatroska10KaxCluster21GetBlockLocalTimecodeEy,
                            __ZNK11libmatroska10KaxSegment17GetGlobalPositionEy,
                            __ZNK11libmatroska10KaxSegment19GetRelativePositionERKN7libebml11EbmlElementE,
                            __ZNK11libmatroska10KaxSegment19GetRelativePositionEy,
                            __ZNK11libmatroska11KaxCuePoint13IsSmallerThanEPKN7libebml11EbmlElementE,
                            __ZNK11libmatroska11KaxCuePoint15GetSeekPositionEv,
                            __ZNK11libmatroska11KaxCuePoint8TimecodeERyy,
                            __ZNK11libmatroska12KaxBlockBlobcvRKNS_13KaxBlockGroupEEv,
                            __ZNK11libmatroska12KaxBlockBlobcvRKNS_16KaxInternalBlockEEv,
                            __ZNK11libmatroska13KaxBlockGroup11TrackNumberEv,
                            __ZNK11libmatroska13KaxBlockGroup14GlobalTimecodeEv,
                            __ZNK11libmatroska13KaxBlockGroup14ReferenceCountEv,
                            __ZNK11libmatroska13KaxBlockGroup15ClusterPositionEv,
                            __ZNK11libmatroska13KaxBlockGroup16GetBlockDurationERy,
                            __ZNK11libmatroska13KaxBlockGroup9ReferenceEj,
                            __ZNK11libmatroska16KaxInternalBlock12ValidateSizeEv,
                            __ZNK11libmatroska16KaxInternalBlock15ClusterPositionEv,
                            __ZNK11libmatroska16KaxInternalBlock17GetBestLacingTypeEv,
                            __ZNK11libmatroska17KaxReferenceBlock8RefBlockEv,
                            __ZNK11libmatroska20KaxCueTrackPositions11TrackNumberEv,
                            __ZNK11libmatroska20KaxCueTrackPositions15ClusterPositionEv,
                            __ZNK11libmatroska7KaxCues16GetTimecodePointEy,
                            __ZNK11libmatroska7KaxCues19GetTimecodePositionEy,
                            __ZNK12AudioRTPSink12sdpMediaTypeEv,
                            __ZNK12FramedFilter13getAttributesEv,
                            __ZNK12FramedFilter8MIMEtypeEv,
                            __ZNK12FramedSource12maxFrameSizeEv,
                            __ZNK12FramedSource14isFramedSourceEv,
                            __ZNK12MediaSession10absEndTimeEv,
                            __ZNK12MediaSession12absStartTimeEv,
                            __ZNK12MediaSession14isMediaSessionEv,
                            __ZNK12RTCPInstance10numMembersEv,
                            __ZNK12RTCPInstance14isRTCPInstanceEv,
                            __ZNK12StreamParser8bankSizeEv,
                            __ZNK12VideoRTPSink12sdpMediaTypeEv,
                            __ZNK13Authenticator21computeDigestResponseEPKcS1_,
                            __ZNK13Authenticator21reclaimDigestResponseEPKc,
                            __ZNK13MP3ADURTPSink17specialHeaderSizeEv,
                            __ZNK13SimpleRTPSink12sdpMediaTypeEv,
                            __ZNK13SimpleRTPSink30frameCanAppearAfterPacketStartEPKhj,
                            __ZNK14AMRAudioSource16isAMRAudioSourceEv,
                            __ZNK14AMRAudioSource8MIMEtypeEv,
                            __ZNK14BasicHashTable10keyMatchesEPKcS1_,
                            __ZNK14BasicHashTable10numEntriesEv,
                            __ZNK14BasicHashTable16hashIndexFromKeyEPKc,
                            __ZNK14BasicHashTable6LookupEPKc,
                            __ZNK14BasicHashTable9lookupKeyEPKcRj,
                            __ZNK14DVVideoRTPSink26computeOverflowForNewFrameEj,
                            __ZNK14NetAddressList12firstAddressEv,
                            __ZNK15AC3AudioRTPSink17specialHeaderSizeEv,
                            __ZNK15AC3AudioRTPSink30frameCanAppearAfterPacketStartEPKhj,
                            __ZNK15GSMAudioRTPSink30frameCanAppearAfterPacketStartEPKhj,
                            __ZNK15MP3ADURTPSource8MIMEtypeEv,
                            __ZNK15MediaSubsession10absEndTimeEv,
                            __ZNK15MediaSubsession11attrVal_intEPKc,
                            __ZNK15MediaSubsession11attrVal_strEPKc,
                            __ZNK15MediaSubsession11fmtp_configEv,
                            __ZNK15MediaSubsession11playEndTimeEv,
                            __ZNK15MediaSubsession12absStartTimeEv,
                            __ZNK15MediaSubsession13playStartTimeEv,
                            __ZNK15MediaSubsession18attrVal_strToLowerEPKc,
                            __ZNK15MediaSubsession25connectionEndpointAddressEv,
                            __ZNK15RawAMRRTPSource8MIMEtypeEv,
                            __ZNK15SimpleRTPSource8MIMEtypeEv,
                            __ZNK15T140TextRTPSink30frameCanAppearAfterPacketStartEPKhj,
                            __ZNK15VP8VideoRTPSink17specialHeaderSizeEv,
                            __ZNK15VP8VideoRTPSink30frameCanAppearAfterPacketStartEPKhj,
                            __ZNK15VP9VideoRTPSink17specialHeaderSizeEv,
                            __ZNK15VP9VideoRTPSink30frameCanAppearAfterPacketStartEPKhj,
                            __ZNK16ADUFromMP3Source8MIMEtypeEv,
                            __ZNK16DVVideoRTPSource8MIMEtypeEv,
                            __ZNK16MP3FromADUSource8MIMEtypeEv,
                            __ZNK16MediaLookupTable6lookupEPKc,
                            __ZNK17AC3AudioRTPSource8MIMEtypeEv,
                            __ZNK17RTPReceptionStats20totNumKBytesReceivedEv,
                            __ZNK17RTPReceptionStats6jitterEv,
                            __ZNK17RawQCELPRTPSource8MIMEtypeEv,
                            __ZNK17VP8VideoRTPSource8MIMEtypeEv,
                            __ZNK17VP9VideoRTPSource8MIMEtypeEv,
                            __ZNK18H261VideoRTPSource8MIMEtypeEv,
                            __ZNK18H264VideoRTPSource8MIMEtypeEv,
                            __ZNK18H265VideoRTPSource8MIMEtypeEv,
                            __ZNK18JPEGVideoRTPSource8MIMEtypeEv,
                            __ZNK18MultiFramedRTPSink17specialHeaderSizeEv,
                            __ZNK18MultiFramedRTPSink18isTooBigForAPacketEj,
                            __ZNK18MultiFramedRTPSink23frameSpecificHeaderSizeEv,
                            __ZNK18MultiFramedRTPSink26computeOverflowForNewFrameEj,
                            __ZNK18MultiFramedRTPSink28allowFragmentationAfterStartEv,
                            __ZNK18MultiFramedRTPSink30frameCanAppearAfterPacketStartEPKhj,
                            __ZNK18MultiFramedRTPSink33allowOtherFramesAfterLastFragmentEv,
                            __ZNK18ServerMediaSession20isServerMediaSessionEv,
                            __ZNK18ServerMediaSession8durationEv,
                            __ZNK18TheoraVideoRTPSink17specialHeaderSizeEv,
                            __ZNK18TheoraVideoRTPSink30frameCanAppearAfterPacketStartEPKhj,
                            __ZNK18VorbisAudioRTPSink17specialHeaderSizeEv,
                            __ZNK18VorbisAudioRTPSink23frameSpecificHeaderSizeEv,
                            __ZNK18VorbisAudioRTPSink30frameCanAppearAfterPacketStartEPKhj,
                            __ZNK19DVVideoStreamFramer21isDVVideoStreamFramerEv,
                            __ZNK19H264or5VideoRTPSink30frameCanAppearAfterPacketStartEPKhj,
                            __ZNK19MPEG4ESVideoRTPSink28allowFragmentationAfterStartEv,
                            __ZNK19MPEG4ESVideoRTPSink30frameCanAppearAfterPacketStartEPKhj,
                            __ZNK19MPEG4GenericRTPSink12sdpMediaTypeEv,
                            __ZNK19MPEG4GenericRTPSink17specialHeaderSizeEv,
                            __ZNK19MPEG4GenericRTPSink30frameCanAppearAfterPacketStartEPKhj,
                            __ZNK19RTPReceptionStatsDB6lookupEj,
                            __ZNK20H263plusVideoRTPSink17specialHeaderSizeEv,
                            __ZNK20H263plusVideoRTPSink30frameCanAppearAfterPacketStartEPKhj,
                            __ZNK20MPEG1or2AudioRTPSink17specialHeaderSizeEv,
                            __ZNK20MPEG1or2VideoRTPSink17specialHeaderSizeEv,
                            __ZNK20MPEG1or2VideoRTPSink28allowFragmentationAfterStartEv,
                            __ZNK20MPEG1or2VideoRTPSink30frameCanAppearAfterPacketStartEPKhj,
                            __ZNK20RTPTransmissionStats14roundTripDelayEv,
                            __ZNK20RTPTransmissionStats20packetsLostBetweenRREv,
                            __ZNK20RTPTransmissionStats26packetsReceivedSinceLastRREv,
                            __ZNK20TheoraVideoRTPSource8MIMEtypeEv,
                            __ZNK20VorbisAudioRTPSource8MIMEtypeEv,
                            __ZNK21BasicUsageEnvironment8getErrnoEv,
                            __ZNK21MPEG4ESVideoRTPSource8MIMEtypeEv,
                            __ZNK21MPEG4GenericRTPSource8MIMEtypeEv,
                            __ZNK21MPEG4LATMAudioRTPSink30frameCanAppearAfterPacketStartEPKhj,
                            __ZNK21ServerMediaSubsession12rangeSDPLineEv,
                            __ZNK21ServerMediaSubsession20getAbsoluteTimeRangeERPcS1_,
                            __ZNK21ServerMediaSubsession8durationEv,
                            __ZNK22BasicUsageEnvironment012getResultMsgEv,
                            __ZNK22H263plusVideoRTPSource8MIMEtypeEv,
                            __ZNK22MPEG1or2AudioRTPSource8MIMEtypeEv,
                            __ZNK22MPEG1or2VideoRTPSource8MIMEtypeEv,
                            __ZNK22MPEG4VideoStreamFramer14getConfigBytesERj,
                            __ZNK22MPEG4VideoStreamFramer24isMPEG4VideoStreamFramerEv,
                            __ZNK22RTPTransmissionStatsDB6lookupEj,
                            __ZNK23MPEG4LATMAudioRTPSource8MIMEtypeEv,
                            __ZNK23ProxyServerMediaSession3urlEv,
                            __ZNK24NetInterfaceTrafficStats15haveSeenTrafficEv,
                            __ZNK25MPEG1or2VideoStreamFramer13getCurrentPTSEv,
                            __ZNK25MPEG1or2VideoStreamFramer27isMPEG1or2VideoStreamFramerEv,
                            __ZNK25QuickTimeGenericRTPSource8MIMEtypeEv,
                            __ZNK29H264VideoStreamDiscreteFramer23isH264VideoStreamFramerEv,
                            __ZNK29H265VideoStreamDiscreteFramer23isH265VideoStreamFramerEv,
                            __ZNK6Medium12isRTSPClientEv,
                            __ZNK6Medium12isRTSPServerEv,
                            __ZNK6Medium14isMediaSessionEv,
                            __ZNK6Medium14isRTCPInstanceEv,
                            __ZNK6Medium20isServerMediaSessionEv,
                            __ZNK6Medium6isSinkEv, __ZNK6Medium8isSourceEv,
                            __ZNK6TagLib10ByteVector10containsAtERKS0_jjj,
                            __ZNK6TagLib10ByteVector10startsWithERKS0_,
                            __ZNK6TagLib10ByteVector10toLongLongEb,
                            __ZNK6TagLib10ByteVector10toLongLongEjb,
                            __ZNK6TagLib10ByteVector11toFloat32BEEm,
                            __ZNK6TagLib10ByteVector11toFloat32LEEm,
                            __ZNK6TagLib10ByteVector11toFloat64BEEm,
                            __ZNK6TagLib10ByteVector11toFloat64LEEm,
                            __ZNK6TagLib10ByteVector11toFloat80BEEm,
                            __ZNK6TagLib10ByteVector11toFloat80LEEm,
                            __ZNK6TagLib10ByteVector20endsWithPartialMatchERKS0_,
                            __ZNK6TagLib10ByteVector2atEj,
                            __ZNK6TagLib10ByteVector3endEv,
                            __ZNK6TagLib10ByteVector3midEjj,
                            __ZNK6TagLib10ByteVector4dataEv,
                            __ZNK6TagLib10ByteVector4findERKS0_ji,
                            __ZNK6TagLib10ByteVector4findEcji,
                            __ZNK6TagLib10ByteVector4rendEv,
                            __ZNK6TagLib10ByteVector4sizeEv,
                            __ZNK6TagLib10ByteVector5beginEv,
                            __ZNK6TagLib10ByteVector5rfindERKS0_ji,
                            __ZNK6TagLib10ByteVector5toHexEv,
                            __ZNK6TagLib10ByteVector6isNullEv,
                            __ZNK6TagLib10ByteVector6rbeginEv,
                            __ZNK6TagLib10ByteVector6toUIntEb,
                            __ZNK6TagLib10ByteVector6toUIntEjb,
                            __ZNK6TagLib10ByteVector6toUIntEjjb,
                            __ZNK6TagLib10ByteVector7isEmptyEv,
                            __ZNK6TagLib10ByteVector7toShortEb,
                            __ZNK6TagLib10ByteVector7toShortEjb,
                            __ZNK6TagLib10ByteVector8checksumEv,
                            __ZNK6TagLib10ByteVector8endsWithERKS0_,
                            __ZNK6TagLib10ByteVector8toBase64Ev,
                            __ZNK6TagLib10ByteVector8toUShortEb,
                            __ZNK6TagLib10ByteVector8toUShortEjb,
                            __ZNK6TagLib10ByteVectoreqEPKc,
                            __ZNK6TagLib10ByteVectoreqERKS0_,
                            __ZNK6TagLib10ByteVectorgtERKS0_,
                            __ZNK6TagLib10ByteVectorixEi,
                            __ZNK6TagLib10ByteVectorltERKS0_,
                            __ZNK6TagLib10ByteVectorneEPKc,
                            __ZNK6TagLib10ByteVectorneERKS0_,
                            __ZNK6TagLib10ByteVectorplERKS0_,
                            __ZNK6TagLib10FileStream4nameEv,
                            __ZNK6TagLib10FileStream4tellEv,
                            __ZNK6TagLib10FileStream6isOpenEv,
                            __ZNK6TagLib10FileStream8readOnlyEv,
                            __ZNK6TagLib10RefCounter5countEv,
                            __ZNK6TagLib10StringList8toStringERKNS_6StringE,
                            __ZNK6TagLib11PropertyMap15unsupportedDataEv,
                            __ZNK6TagLib11PropertyMap4findERKNS_6StringE,
                            __ZNK6TagLib11PropertyMap8containsERKNS_6StringE,
                            __ZNK6TagLib11PropertyMap8containsERKS0_,
                            __ZNK6TagLib11PropertyMap8toStringEv,
                            __ZNK6TagLib11PropertyMapeqERKS0_,
                            __ZNK6TagLib11PropertyMapixERKNS_6StringE,
                            __ZNK6TagLib11PropertyMapneERKS0_,
                            __ZNK6TagLib14ByteVectorList12toByteVectorERKNS_10ByteVectorE,
                            __ZNK6TagLib15AudioProperties15lengthInSecondsEv,
                            __ZNK6TagLib15AudioProperties20lengthInMillisecondsEv,
                            __ZNK6TagLib2IT10Properties10sampleRateEv,
                            __ZNK6TagLib2IT10Properties11sampleCountEv,
                            __ZNK6TagLib2IT10Properties12globalVolumeEv,
                            __ZNK6TagLib2IT10Properties12patternCountEv,
                            __ZNK6TagLib2IT10Properties15instrumentCountEv,
                            __ZNK6TagLib2IT10Properties15lengthInSecondsEv,
                            __ZNK6TagLib2IT10Properties15pitchWheelDepthEv,
                            __ZNK6TagLib2IT10Properties16lengthInPatternsEv,
                            __ZNK6TagLib2IT10Properties17compatibleVersionEv,
                            __ZNK6TagLib2IT10Properties17panningSeparationEv,
                            __ZNK6TagLib2IT10Properties20lengthInMillisecondsEv,
                            __ZNK6TagLib2IT10Properties5flagsEv,
                            __ZNK6TagLib2IT10Properties5tempoEv,
                            __ZNK6TagLib2IT10Properties6lengthEv,
                            __ZNK6TagLib2IT10Properties6stereoEv,
                            __ZNK6TagLib2IT10Properties7bitrateEv,
                            __ZNK6TagLib2IT10Properties7specialEv,
                            __ZNK6TagLib2IT10Properties7versionEv,
                            __ZNK6TagLib2IT10Properties8bpmSpeedEv,
                            __ZNK6TagLib2IT10Properties8channelsEv,
                            __ZNK6TagLib2IT10Properties9mixVolumeEv,
                            __ZNK6TagLib2IT4File10propertiesEv,
                            __ZNK6TagLib2IT4File15audioPropertiesEv,
                            __ZNK6TagLib2IT4File3tagEv,
                            __ZNK6TagLib2XM10Properties10sampleRateEv,
                            __ZNK6TagLib2XM10Properties11sampleCountEv,
                            __ZNK6TagLib2XM10Properties12patternCountEv,
                            __ZNK6TagLib2XM10Properties15instrumentCountEv,
                            __ZNK6TagLib2XM10Properties15lengthInSecondsEv,
                            __ZNK6TagLib2XM10Properties15restartPositionEv,
                            __ZNK6TagLib2XM10Properties16lengthInPatternsEv,
                            __ZNK6TagLib2XM10Properties20lengthInMillisecondsEv,
                            __ZNK6TagLib2XM10Properties5flagsEv,
                            __ZNK6TagLib2XM10Properties5tempoEv,
                            __ZNK6TagLib2XM10Properties6lengthEv,
                            __ZNK6TagLib2XM10Properties7bitrateEv,
                            __ZNK6TagLib2XM10Properties7versionEv,
                            __ZNK6TagLib2XM10Properties8bpmSpeedEv,
                            __ZNK6TagLib2XM10Properties8channelsEv,
                            __ZNK6TagLib2XM4File10propertiesEv,
                            __ZNK6TagLib2XM4File15audioPropertiesEv,
                            __ZNK6TagLib2XM4File3tagEv,
                            __ZNK6TagLib3APE10Properties10sampleRateEv,
                            __ZNK6TagLib3APE10Properties12sampleFramesEv,
                            __ZNK6TagLib3APE10Properties13bitsPerSampleEv,
                            __ZNK6TagLib3APE10Properties15lengthInSecondsEv,
                            __ZNK6TagLib3APE10Properties20lengthInMillisecondsEv,
                            __ZNK6TagLib3APE10Properties6lengthEv,
                            __ZNK6TagLib3APE10Properties7bitrateEv,
                            __ZNK6TagLib3APE10Properties7versionEv,
                            __ZNK6TagLib3APE10Properties8channelsEv,
                            __ZNK6TagLib3APE3Tag10propertiesEv,
                            __ZNK6TagLib3APE3Tag11itemListMapEv,
                            __ZNK6TagLib3APE3Tag4yearEv,
                            __ZNK6TagLib3APE3Tag5albumEv,
                            __ZNK6TagLib3APE3Tag5genreEv,
                            __ZNK6TagLib3APE3Tag5titleEv,
                            __ZNK6TagLib3APE3Tag5trackEv,
                            __ZNK6TagLib3APE3Tag6artistEv,
                            __ZNK6TagLib3APE3Tag6footerEv,
                            __ZNK6TagLib3APE3Tag6renderEv,
                            __ZNK6TagLib3APE3Tag7commentEv,
                            __ZNK6TagLib3APE3Tag7isEmptyEv,
                            __ZNK6TagLib3APE4File10propertiesEv,
                            __ZNK6TagLib3APE4File11hasID3v1TagEv,
                            __ZNK6TagLib3APE4File15audioPropertiesEv,
                            __ZNK6TagLib3APE4File3tagEv,
                            __ZNK6TagLib3APE4File9hasAPETagEv,
                            __ZNK6TagLib3APE4Item10binaryDataEv,
                            __ZNK6TagLib3APE4Item10isReadOnlyEv,
                            __ZNK6TagLib3APE4Item12toStringListEv,
                            __ZNK6TagLib3APE4Item3keyEv,
                            __ZNK6TagLib3APE4Item4sizeEv,
                            __ZNK6TagLib3APE4Item4typeEv,
                            __ZNK6TagLib3APE4Item5valueEv,
                            __ZNK6TagLib3APE4Item6renderEv,
                            __ZNK6TagLib3APE4Item6valuesEv,
                            __ZNK6TagLib3APE4Item7isEmptyEv,
                            __ZNK6TagLib3APE4Item8toStringEv,
                            __ZNK6TagLib3APE6Footer12renderFooterEv,
                            __ZNK6TagLib3APE6Footer12renderHeaderEv,
                            __ZNK6TagLib3APE6Footer13footerPresentEv,
                            __ZNK6TagLib3APE6Footer13headerPresentEv,
                            __ZNK6TagLib3APE6Footer15completeTagSizeEv,
                            __ZNK6TagLib3APE6Footer16setHeaderPresentEb,
                            __ZNK6TagLib3APE6Footer6renderEb,
                            __ZNK6TagLib3APE6Footer7tagSizeEv,
                            __ZNK6TagLib3APE6Footer7versionEv,
                            __ZNK6TagLib3APE6Footer8isHeaderEv,
                            __ZNK6TagLib3APE6Footer9itemCountEv,
                            __ZNK6TagLib3ASF10Properties10sampleRateEv,
                            __ZNK6TagLib3ASF10Properties11isEncryptedEv,
                            __ZNK6TagLib3ASF10Properties13bitsPerSampleEv,
                            __ZNK6TagLib3ASF10Properties15lengthInSecondsEv,
                            __ZNK6TagLib3ASF10Properties16codecDescriptionEv,
                            __ZNK6TagLib3ASF10Properties20lengthInMillisecondsEv,
                            __ZNK6TagLib3ASF10Properties5codecEv,
                            __ZNK6TagLib3ASF10Properties6lengthEv,
                            __ZNK6TagLib3ASF10Properties7bitrateEv,
                            __ZNK6TagLib3ASF10Properties8channelsEv,
                            __ZNK6TagLib3ASF10Properties9codecNameEv,
                            __ZNK6TagLib3ASF3Tag10propertiesEv,
                            __ZNK6TagLib3ASF3Tag16attributeListMapEv,
                            __ZNK6TagLib3ASF3Tag4yearEv,
                            __ZNK6TagLib3ASF3Tag5albumEv,
                            __ZNK6TagLib3ASF3Tag5genreEv,
                            __ZNK6TagLib3ASF3Tag5titleEv,
                            __ZNK6TagLib3ASF3Tag5trackEv,
                            __ZNK6TagLib3ASF3Tag6artistEv,
                            __ZNK6TagLib3ASF3Tag6ratingEv,
                            __ZNK6TagLib3ASF3Tag7commentEv,
                            __ZNK6TagLib3ASF3Tag7isEmptyEv,
                            __ZNK6TagLib3ASF3Tag8containsERKNS_6StringE,
                            __ZNK6TagLib3ASF3Tag9attributeERKNS_6StringE,
                            __ZNK6TagLib3ASF3Tag9copyrightEv,
                            __ZNK6TagLib3ASF4File10propertiesEv,
                            __ZNK6TagLib3ASF4File11FilePrivate13UnknownObject4guidEv,
                            __ZNK6TagLib3ASF4File11FilePrivate14MetadataObject4guidEv,
                            __ZNK6TagLib3ASF4File11FilePrivate15CodecListObject4guidEv,
                            __ZNK6TagLib3ASF4File11FilePrivate20FilePropertiesObject4guidEv,
                            __ZNK6TagLib3ASF4File11FilePrivate21HeaderExtensionObject4guidEv,
                            __ZNK6TagLib3ASF4File11FilePrivate21MetadataLibraryObject4guidEv,
                            __ZNK6TagLib3ASF4File11FilePrivate22StreamPropertiesObject4guidEv,
                            __ZNK6TagLib3ASF4File11FilePrivate24ContentDescriptionObject4guidEv,
                            __ZNK6TagLib3ASF4File11FilePrivate32ExtendedContentDescriptionObject4guidEv,
                            __ZNK6TagLib3ASF4File15audioPropertiesEv,
                            __ZNK6TagLib3ASF4File3tagEv,
                            __ZNK6TagLib3ASF7Picture11descriptionEv,
                            __ZNK6TagLib3ASF7Picture4typeEv,
                            __ZNK6TagLib3ASF7Picture6renderEv,
                            __ZNK6TagLib3ASF7Picture7isValidEv,
                            __ZNK6TagLib3ASF7Picture7pictureEv,
                            __ZNK6TagLib3ASF7Picture8dataSizeEv,
                            __ZNK6TagLib3ASF7Picture8mimeTypeEv,
                            __ZNK6TagLib3ASF9Attribute11toULongLongEv,
                            __ZNK6TagLib3ASF9Attribute12toByteVectorEv,
                            __ZNK6TagLib3ASF9Attribute4typeEv,
                            __ZNK6TagLib3ASF9Attribute6renderERKNS_6StringEi,
                            __ZNK6TagLib3ASF9Attribute6streamEv,
                            __ZNK6TagLib3ASF9Attribute6toBoolEv,
                            __ZNK6TagLib3ASF9Attribute6toUIntEv,
                            __ZNK6TagLib3ASF9Attribute8dataSizeEv,
                            __ZNK6TagLib3ASF9Attribute8languageEv,
                            __ZNK6TagLib3ASF9Attribute8toStringEv,
                            __ZNK6TagLib3ASF9Attribute8toUShortEv,
                            __ZNK6TagLib3ASF9Attribute9toPictureEv,
                            __ZNK6TagLib3MP410Properties10sampleRateEv,
                            __ZNK6TagLib3MP410Properties11isEncryptedEv,
                            __ZNK6TagLib3MP410Properties13bitsPerSampleEv,
                            __ZNK6TagLib3MP410Properties15lengthInSecondsEv,
                            __ZNK6TagLib3MP410Properties20lengthInMillisecondsEv,
                            __ZNK6TagLib3MP410Properties5codecEv,
                            __ZNK6TagLib3MP410Properties6lengthEv,
                            __ZNK6TagLib3MP410Properties7bitrateEv,
                            __ZNK6TagLib3MP410Properties8channelsEv,
                            __ZNK6TagLib3MP43Tag10propertiesEv,
                            __ZNK6TagLib3MP43Tag10renderAtomERKNS_10ByteVectorES4_,
                            __ZNK6TagLib3MP43Tag10renderBoolERKNS_10ByteVectorERKNS0_4ItemE,
                            __ZNK6TagLib3MP43Tag10renderByteERKNS_10ByteVectorERKNS0_4ItemE,
                            __ZNK6TagLib3MP43Tag10renderCovrERKNS_10ByteVectorERKNS0_4ItemE,
                            __ZNK6TagLib3MP43Tag10renderDataERKNS_10ByteVectorEiRKNS_14ByteVectorListE,
                            __ZNK6TagLib3MP43Tag10renderTextERKNS_10ByteVectorERKNS0_4ItemEi,
                            __ZNK6TagLib3MP43Tag10renderUIntERKNS_10ByteVectorERKNS0_4ItemE,
                            __ZNK6TagLib3MP43Tag13renderIntPairERKNS_10ByteVectorERKNS0_4ItemE,
                            __ZNK6TagLib3MP43Tag14renderFreeFormERKNS_6StringERKNS0_4ItemE,
                            __ZNK6TagLib3MP43Tag14renderLongLongERKNS_10ByteVectorERKNS0_4ItemE,
                            __ZNK6TagLib3MP43Tag23renderIntPairNoTrailingERKNS_10ByteVectorERKNS0_4ItemE,
                            __ZNK6TagLib3MP43Tag4itemERKNS_6StringE,
                            __ZNK6TagLib3MP43Tag4yearEv,
                            __ZNK6TagLib3MP43Tag5albumEv,
                            __ZNK6TagLib3MP43Tag5genreEv,
                            __ZNK6TagLib3MP43Tag5titleEv,
                            __ZNK6TagLib3MP43Tag5trackEv,
                            __ZNK6TagLib3MP43Tag6artistEv,
                            __ZNK6TagLib3MP43Tag7commentEv,
                            __ZNK6TagLib3MP43Tag7isEmptyEv,
                            __ZNK6TagLib3MP43Tag7itemMapEv,
                            __ZNK6TagLib3MP43Tag7padIlstERKNS_10ByteVectorEi,
                            __ZNK6TagLib3MP43Tag8containsERKNS_6StringE,
                            __ZNK6TagLib3MP43Tag9renderIntERKNS_10ByteVectorERKNS0_4ItemE,
                            __ZNK6TagLib3MP44File10propertiesEv,
                            __ZNK6TagLib3MP44File15audioPropertiesEv,
                            __ZNK6TagLib3MP44File3tagEv,
                            __ZNK6TagLib3MP44File9hasMP4TagEv,
                            __ZNK6TagLib3MP44Item10toLongLongEv,
                            __ZNK6TagLib3MP44Item12atomDataTypeEv,
                            __ZNK6TagLib3MP44Item12toStringListEv,
                            __ZNK6TagLib3MP44Item14toCoverArtListEv,
                            __ZNK6TagLib3MP44Item16toByteVectorListEv,
                            __ZNK6TagLib3MP44Item5toIntEv,
                            __ZNK6TagLib3MP44Item6toBoolEv,
                            __ZNK6TagLib3MP44Item6toByteEv,
                            __ZNK6TagLib3MP44Item6toUIntEv,
                            __ZNK6TagLib3MP44Item7isValidEv,
                            __ZNK6TagLib3MP44Item9toIntPairEv,
                            __ZNK6TagLib3MP48CoverArt4dataEv,
                            __ZNK6TagLib3MP48CoverArt6formatEv,
                            __ZNK6TagLib3MPC10Properties10mpcVersionEv,
                            __ZNK6TagLib3MPC10Properties10sampleRateEv,
                            __ZNK6TagLib3MPC10Properties11totalFramesEv,
                            __ZNK6TagLib3MPC10Properties12sampleFramesEv,
                            __ZNK6TagLib3MPC10Properties15lengthInSecondsEv,
                            __ZNK6TagLib3MPC10Properties20lengthInMillisecondsEv,
                            __ZNK6TagLib3MPC10Properties6lengthEv,
                            __ZNK6TagLib3MPC10Properties7bitrateEv,
                            __ZNK6TagLib3MPC10Properties8channelsEv,
                            __ZNK6TagLib3MPC10Properties9albumGainEv,
                            __ZNK6TagLib3MPC10Properties9albumPeakEv,
                            __ZNK6TagLib3MPC10Properties9trackGainEv,
                            __ZNK6TagLib3MPC10Properties9trackPeakEv,
                            __ZNK6TagLib3MPC4File10propertiesEv,
                            __ZNK6TagLib3MPC4File11hasID3v1TagEv,
                            __ZNK6TagLib3MPC4File15audioPropertiesEv,
                            __ZNK6TagLib3MPC4File3tagEv,
                            __ZNK6TagLib3MPC4File9hasAPETagEv,
                            __ZNK6TagLib3Mod10Properties10sampleRateEv,
                            __ZNK6TagLib3Mod10Properties15instrumentCountEv,
                            __ZNK6TagLib3Mod10Properties15lengthInSecondsEv,
                            __ZNK6TagLib3Mod10Properties16lengthInPatternsEv,
                            __ZNK6TagLib3Mod10Properties20lengthInMillisecondsEv,
                            __ZNK6TagLib3Mod10Properties6lengthEv,
                            __ZNK6TagLib3Mod10Properties7bitrateEv,
                            __ZNK6TagLib3Mod10Properties8channelsEv,
                            __ZNK6TagLib3Mod3Tag10propertiesEv,
                            __ZNK6TagLib3Mod3Tag11trackerNameEv,
                            __ZNK6TagLib3Mod3Tag4yearEv,
                            __ZNK6TagLib3Mod3Tag5albumEv,
                            __ZNK6TagLib3Mod3Tag5genreEv,
                            __ZNK6TagLib3Mod3Tag5titleEv,
                            __ZNK6TagLib3Mod3Tag5trackEv,
                            __ZNK6TagLib3Mod3Tag6artistEv,
                            __ZNK6TagLib3Mod3Tag7commentEv,
                            __ZNK6TagLib3Mod4File10propertiesEv,
                            __ZNK6TagLib3Mod4File15audioPropertiesEv,
                            __ZNK6TagLib3Mod4File3tagEv,
                            __ZNK6TagLib3Ogg10PageHeader11packetSizesEv,
                            __ZNK6TagLib3Ogg10PageHeader12lacingValuesEv,
                            __ZNK6TagLib3Ogg10PageHeader16lastPageOfStreamEv,
                            __ZNK6TagLib3Ogg10PageHeader17firstPageOfStreamEv,
                            __ZNK6TagLib3Ogg10PageHeader18pageSequenceNumberEv,
                            __ZNK6TagLib3Ogg10PageHeader18streamSerialNumberEv,
                            __ZNK6TagLib3Ogg10PageHeader19lastPacketCompletedEv,
                            __ZNK6TagLib3Ogg10PageHeader20firstPacketContinuedEv,
                            __ZNK6TagLib3Ogg10PageHeader24absoluteGranularPositionEv,
                            __ZNK6TagLib3Ogg10PageHeader4sizeEv,
                            __ZNK6TagLib3Ogg10PageHeader6renderEv,
                            __ZNK6TagLib3Ogg10PageHeader7isValidEv,
                            __ZNK6TagLib3Ogg10PageHeader8dataSizeEv,
                            __ZNK6TagLib3Ogg11XiphComment10fieldCountEv,
                            __ZNK6TagLib3Ogg11XiphComment10propertiesEv,
                            __ZNK6TagLib3Ogg11XiphComment12fieldListMapEv,
                            __ZNK6TagLib3Ogg11XiphComment4yearEv,
                            __ZNK6TagLib3Ogg11XiphComment5albumEv,
                            __ZNK6TagLib3Ogg11XiphComment5genreEv,
                            __ZNK6TagLib3Ogg11XiphComment5titleEv,
                            __ZNK6TagLib3Ogg11XiphComment5trackEv,
                            __ZNK6TagLib3Ogg11XiphComment6artistEv,
                            __ZNK6TagLib3Ogg11XiphComment6renderEb,
                            __ZNK6TagLib3Ogg11XiphComment6renderEv,
                            __ZNK6TagLib3Ogg11XiphComment7commentEv,
                            __ZNK6TagLib3Ogg11XiphComment7isEmptyEv,
                            __ZNK6TagLib3Ogg11XiphComment8containsERKNS_6StringE,
                            __ZNK6TagLib3Ogg11XiphComment8vendorIDEv,
                            __ZNK6TagLib3Ogg4FLAC4File10propertiesEv,
                            __ZNK6TagLib3Ogg4FLAC4File14hasXiphCommentEv,
                            __ZNK6TagLib3Ogg4FLAC4File15audioPropertiesEv,
                            __ZNK6TagLib3Ogg4FLAC4File3tagEv,
                            __ZNK6TagLib3Ogg4Opus10Properties10sampleRateEv,
                            __ZNK6TagLib3Ogg4Opus10Properties11opusVersionEv,
                            __ZNK6TagLib3Ogg4Opus10Properties15inputSampleRateEv,
                            __ZNK6TagLib3Ogg4Opus10Properties15lengthInSecondsEv,
                            __ZNK6TagLib3Ogg4Opus10Properties20lengthInMillisecondsEv,
                            __ZNK6TagLib3Ogg4Opus10Properties6lengthEv,
                            __ZNK6TagLib3Ogg4Opus10Properties7bitrateEv,
                            __ZNK6TagLib3Ogg4Opus10Properties8channelsEv,
                            __ZNK6TagLib3Ogg4Opus4File10propertiesEv,
                            __ZNK6TagLib3Ogg4Opus4File15audioPropertiesEv,
                            __ZNK6TagLib3Ogg4Opus4File3tagEv,
                            __ZNK6TagLib3Ogg4Page10fileOffsetEv,
                            __ZNK6TagLib3Ogg4Page11packetCountEv,
                            __ZNK6TagLib3Ogg4Page14containsPacketEi,
                            __ZNK6TagLib3Ogg4Page16firstPacketIndexEv,
                            __ZNK6TagLib3Ogg4Page18pageSequenceNumberEv,
                            __ZNK6TagLib3Ogg4Page4sizeEv,
                            __ZNK6TagLib3Ogg4Page6headerEv,
                            __ZNK6TagLib3Ogg4Page6renderEv,
                            __ZNK6TagLib3Ogg4Page7packetsEv,
                            __ZNK6TagLib3Ogg5Speex10Properties10sampleRateEv,
                            __ZNK6TagLib3Ogg5Speex10Properties12speexVersionEv,
                            __ZNK6TagLib3Ogg5Speex10Properties14bitrateNominalEv,
                            __ZNK6TagLib3Ogg5Speex10Properties15lengthInSecondsEv,
                            __ZNK6TagLib3Ogg5Speex10Properties20lengthInMillisecondsEv,
                            __ZNK6TagLib3Ogg5Speex10Properties6lengthEv,
                            __ZNK6TagLib3Ogg5Speex10Properties7bitrateEv,
                            __ZNK6TagLib3Ogg5Speex10Properties8channelsEv,
                            __ZNK6TagLib3Ogg5Speex4File10propertiesEv,
                            __ZNK6TagLib3Ogg5Speex4File15audioPropertiesEv,
                            __ZNK6TagLib3Ogg5Speex4File3tagEv,
                            __ZNK6TagLib3S3M10Properties10sampleRateEv,
                            __ZNK6TagLib3S3M10Properties11sampleCountEv,
                            __ZNK6TagLib3S3M10Properties12globalVolumeEv,
                            __ZNK6TagLib3S3M10Properties12masterVolumeEv,
                            __ZNK6TagLib3S3M10Properties12patternCountEv,
                            __ZNK6TagLib3S3M10Properties14trackerVersionEv,
                            __ZNK6TagLib3S3M10Properties15lengthInSecondsEv,
                            __ZNK6TagLib3S3M10Properties16lengthInPatternsEv,
                            __ZNK6TagLib3S3M10Properties17fileFormatVersionEv,
                            __ZNK6TagLib3S3M10Properties20lengthInMillisecondsEv,
                            __ZNK6TagLib3S3M10Properties5flagsEv,
                            __ZNK6TagLib3S3M10Properties5tempoEv,
                            __ZNK6TagLib3S3M10Properties6lengthEv,
                            __ZNK6TagLib3S3M10Properties6stereoEv,
                            __ZNK6TagLib3S3M10Properties7bitrateEv,
                            __ZNK6TagLib3S3M10Properties8bpmSpeedEv,
                            __ZNK6TagLib3S3M10Properties8channelsEv,
                            __ZNK6TagLib3S3M4File10propertiesEv,
                            __ZNK6TagLib3S3M4File15audioPropertiesEv,
                            __ZNK6TagLib3S3M4File3tagEv,
                            __ZNK6TagLib3Tag10propertiesEv,
                            __ZNK6TagLib3Tag7isEmptyEv,
                            __ZNK6TagLib4FLAC10Properties10sampleRateEv,
                            __ZNK6TagLib4FLAC10Properties11sampleWidthEv,
                            __ZNK6TagLib4FLAC10Properties12sampleFramesEv,
                            __ZNK6TagLib4FLAC10Properties13bitsPerSampleEv,
                            __ZNK6TagLib4FLAC10Properties15lengthInSecondsEv,
                            __ZNK6TagLib4FLAC10Properties20lengthInMillisecondsEv,
                            __ZNK6TagLib4FLAC10Properties6lengthEv,
                            __ZNK6TagLib4FLAC10Properties7bitrateEv,
                            __ZNK6TagLib4FLAC10Properties8channelsEv,
                            __ZNK6TagLib4FLAC10Properties9signatureEv,
                            __ZNK6TagLib4FLAC20UnknownMetadataBlock4codeEv,
                            __ZNK6TagLib4FLAC20UnknownMetadataBlock4dataEv,
                            __ZNK6TagLib4FLAC20UnknownMetadataBlock6renderEv,
                            __ZNK6TagLib4FLAC4File10propertiesEv,
                            __ZNK6TagLib4FLAC4File11hasID3v1TagEv,
                            __ZNK6TagLib4FLAC4File11hasID3v2TagEv,
                            __ZNK6TagLib4FLAC4File14hasXiphCommentEv,
                            __ZNK6TagLib4FLAC4File15audioPropertiesEv,
                            __ZNK6TagLib4FLAC4File3tagEv,
                            __ZNK6TagLib4FLAC7Picture10colorDepthEv,
                            __ZNK6TagLib4FLAC7Picture11descriptionEv,
                            __ZNK6TagLib4FLAC7Picture4codeEv,
                            __ZNK6TagLib4FLAC7Picture4dataEv,
                            __ZNK6TagLib4FLAC7Picture4typeEv,
                            __ZNK6TagLib4FLAC7Picture5widthEv,
                            __ZNK6TagLib4FLAC7Picture6heightEv,
                            __ZNK6TagLib4FLAC7Picture6renderEv,
                            __ZNK6TagLib4FLAC7Picture8mimeTypeEv,
                            __ZNK6TagLib4FLAC7Picture9numColorsEv,
                            __ZNK6TagLib4File10propertiesEv,
                            __ZNK6TagLib4File4nameEv, __ZNK6TagLib4File4tellEv,
                            __ZNK6TagLib4File6isOpenEv,
                            __ZNK6TagLib4File7isValidEv,
                            __ZNK6TagLib4File8readOnlyEv,
                            __ZNK6TagLib4MPEG10Properties10isOriginalEv,
                            __ZNK6TagLib4MPEG10Properties10sampleRateEv,
                            __ZNK6TagLib4MPEG10Properties10xingHeaderEv,
                            __ZNK6TagLib4MPEG10Properties11channelModeEv,
                            __ZNK6TagLib4MPEG10Properties13isCopyrightedEv,
                            __ZNK6TagLib4MPEG10Properties15lengthInSecondsEv,
                            __ZNK6TagLib4MPEG10Properties17protectionEnabledEv,
                            __ZNK6TagLib4MPEG10Properties20lengthInMillisecondsEv,
                            __ZNK6TagLib4MPEG10Properties5layerEv,
                            __ZNK6TagLib4MPEG10Properties6lengthEv,
                            __ZNK6TagLib4MPEG10Properties7bitrateEv,
                            __ZNK6TagLib4MPEG10Properties7versionEv,
                            __ZNK6TagLib4MPEG10Properties8channelsEv,
                            __ZNK6TagLib4MPEG10XingHeader11totalFramesEv,
                            __ZNK6TagLib4MPEG10XingHeader4typeEv,
                            __ZNK6TagLib4MPEG10XingHeader7isValidEv,
                            __ZNK6TagLib4MPEG10XingHeader9totalSizeEv,
                            __ZNK6TagLib4MPEG4File10propertiesEv,
                            __ZNK6TagLib4MPEG4File11hasID3v1TagEv,
                            __ZNK6TagLib4MPEG4File11hasID3v2TagEv,
                            __ZNK6TagLib4MPEG4File15audioPropertiesEv,
                            __ZNK6TagLib4MPEG4File3tagEv,
                            __ZNK6TagLib4MPEG4File9hasAPETagEv,
                            __ZNK6TagLib4MPEG6Header10isOriginalEv,
                            __ZNK6TagLib4MPEG6Header10sampleRateEv,
                            __ZNK6TagLib4MPEG6Header11channelModeEv,
                            __ZNK6TagLib4MPEG6Header11frameLengthEv,
                            __ZNK6TagLib4MPEG6Header13isCopyrightedEv,
                            __ZNK6TagLib4MPEG6Header15samplesPerFrameEv,
                            __ZNK6TagLib4MPEG6Header17protectionEnabledEv,
                            __ZNK6TagLib4MPEG6Header5layerEv,
                            __ZNK6TagLib4MPEG6Header7bitrateEv,
                            __ZNK6TagLib4MPEG6Header7isValidEv,
                            __ZNK6TagLib4MPEG6Header7versionEv,
                            __ZNK6TagLib4MPEG6Header8isPaddedEv,
                            __ZNK6TagLib4RIFF3WAV10Properties10sampleRateEv,
                            __ZNK6TagLib4RIFF3WAV10Properties11sampleWidthEv,
                            __ZNK6TagLib4RIFF3WAV10Properties12sampleFramesEv,
                            __ZNK6TagLib4RIFF3WAV10Properties13bitsPerSampleEv,
                            __ZNK6TagLib4RIFF3WAV10Properties15lengthInSecondsEv,
                            __ZNK6TagLib4RIFF3WAV10Properties20lengthInMillisecondsEv,
                            __ZNK6TagLib4RIFF3WAV10Properties6formatEv,
                            __ZNK6TagLib4RIFF3WAV10Properties6lengthEv,
                            __ZNK6TagLib4RIFF3WAV10Properties7bitrateEv,
                            __ZNK6TagLib4RIFF3WAV10Properties8channelsEv,
                            __ZNK6TagLib4RIFF3WAV4File10hasInfoTagEv,
                            __ZNK6TagLib4RIFF3WAV4File10propertiesEv,
                            __ZNK6TagLib4RIFF3WAV4File11hasID3v2TagEv,
                            __ZNK6TagLib4RIFF3WAV4File15audioPropertiesEv,
                            __ZNK6TagLib4RIFF3WAV4File3tagEv,
                            __ZNK6TagLib4RIFF3WAV4File7InfoTagEv,
                            __ZNK6TagLib4RIFF3WAV4File8ID3v2TagEv,
                            __ZNK6TagLib4RIFF4AIFF10Properties10sampleRateEv,
                            __ZNK6TagLib4RIFF4AIFF10Properties11sampleWidthEv,
                            __ZNK6TagLib4RIFF4AIFF10Properties12sampleFramesEv,
                            __ZNK6TagLib4RIFF4AIFF10Properties13bitsPerSampleEv,
                            __ZNK6TagLib4RIFF4AIFF10Properties15compressionNameEv,
                            __ZNK6TagLib4RIFF4AIFF10Properties15compressionTypeEv,
                            __ZNK6TagLib4RIFF4AIFF10Properties15lengthInSecondsEv,
                            __ZNK6TagLib4RIFF4AIFF10Properties20lengthInMillisecondsEv,
                            __ZNK6TagLib4RIFF4AIFF10Properties6lengthEv,
                            __ZNK6TagLib4RIFF4AIFF10Properties7bitrateEv,
                            __ZNK6TagLib4RIFF4AIFF10Properties7isAiffCEv,
                            __ZNK6TagLib4RIFF4AIFF10Properties8channelsEv,
                            __ZNK6TagLib4RIFF4AIFF4File10propertiesEv,
                            __ZNK6TagLib4RIFF4AIFF4File11hasID3v2TagEv,
                            __ZNK6TagLib4RIFF4AIFF4File15audioPropertiesEv,
                            __ZNK6TagLib4RIFF4AIFF4File3tagEv,
                            __ZNK6TagLib4RIFF4File10chunkCountEv,
                            __ZNK6TagLib4RIFF4File11chunkOffsetEj,
                            __ZNK6TagLib4RIFF4File12chunkPaddingEj,
                            __ZNK6TagLib4RIFF4File13chunkDataSizeEj,
                            __ZNK6TagLib4RIFF4File8riffSizeEv,
                            __ZNK6TagLib4RIFF4File9chunkNameEj,
                            __ZNK6TagLib4RIFF4Info13StringHandler5parseERKNS_10ByteVectorE,
                            __ZNK6TagLib4RIFF4Info13StringHandler6renderERKNS_6StringE,
                            __ZNK6TagLib4RIFF4Info3Tag12fieldListMapEv,
                            __ZNK6TagLib4RIFF4Info3Tag4yearEv,
                            __ZNK6TagLib4RIFF4Info3Tag5albumEv,
                            __ZNK6TagLib4RIFF4Info3Tag5genreEv,
                            __ZNK6TagLib4RIFF4Info3Tag5titleEv,
                            __ZNK6TagLib4RIFF4Info3Tag5trackEv,
                            __ZNK6TagLib4RIFF4Info3Tag6artistEv,
                            __ZNK6TagLib4RIFF4Info3Tag6renderEv,
                            __ZNK6TagLib4RIFF4Info3Tag7commentEv,
                            __ZNK6TagLib4RIFF4Info3Tag7isEmptyEv,
                            __ZNK6TagLib4RIFF4Info3Tag9fieldTextERKNS_10ByteVectorE,
                            __ZNK6TagLib5ID3v113StringHandler5parseERKNS_10ByteVectorE,
                            __ZNK6TagLib5ID3v113StringHandler6renderERKNS_6StringE,
                            __ZNK6TagLib5ID3v13Tag11genreNumberEv,
                            __ZNK6TagLib5ID3v13Tag4yearEv,
                            __ZNK6TagLib5ID3v13Tag5albumEv,
                            __ZNK6TagLib5ID3v13Tag5genreEv,
                            __ZNK6TagLib5ID3v13Tag5titleEv,
                            __ZNK6TagLib5ID3v13Tag5trackEv,
                            __ZNK6TagLib5ID3v13Tag6artistEv,
                            __ZNK6TagLib5ID3v13Tag6renderEv,
                            __ZNK6TagLib5ID3v13Tag7commentEv,
                            __ZNK6TagLib5ID3v212ChapterFrame11startOffsetEv,
                            __ZNK6TagLib5ID3v212ChapterFrame12asPropertiesEv,
                            __ZNK6TagLib5ID3v212ChapterFrame12renderFieldsEv,
                            __ZNK6TagLib5ID3v212ChapterFrame17embeddedFrameListERKNS_10ByteVectorE,
                            __ZNK6TagLib5ID3v212ChapterFrame17embeddedFrameListEv,
                            __ZNK6TagLib5ID3v212ChapterFrame20embeddedFrameListMapEv,
                            __ZNK6TagLib5ID3v212ChapterFrame7endTimeEv,
                            __ZNK6TagLib5ID3v212ChapterFrame8toStringEv,
                            __ZNK6TagLib5ID3v212ChapterFrame9elementIDEv,
                            __ZNK6TagLib5ID3v212ChapterFrame9endOffsetEv,
                            __ZNK6TagLib5ID3v212ChapterFrame9startTimeEv,
                            __ZNK6TagLib5ID3v212FrameFactory11createFrameERKNS_10ByteVectorEPNS0_6HeaderE,
                            __ZNK6TagLib5ID3v212FrameFactory11createFrameERKNS_10ByteVectorEb,
                            __ZNK6TagLib5ID3v212FrameFactory11createFrameERKNS_10ByteVectorEj,
                            __ZNK6TagLib5ID3v212FrameFactory11updateFrameEPNS0_5Frame6HeaderE,
                            __ZNK6TagLib5ID3v212FrameFactory19defaultTextEncodingEv,
                            __ZNK6TagLib5ID3v212FrameFactory22rebuildAggregateFramesEPNS0_3TagE,
                            __ZNK6TagLib5ID3v212PodcastFrame12renderFieldsEv,
                            __ZNK6TagLib5ID3v212PodcastFrame8toStringEv,
                            __ZNK6TagLib5ID3v212PrivateFrame12renderFieldsEv,
                            __ZNK6TagLib5ID3v212PrivateFrame4dataEv,
                            __ZNK6TagLib5ID3v212PrivateFrame5ownerEv,
                            __ZNK6TagLib5ID3v212PrivateFrame8toStringEv,
                            __ZNK6TagLib5ID3v212UnknownFrame12renderFieldsEv,
                            __ZNK6TagLib5ID3v212UnknownFrame4dataEv,
                            __ZNK6TagLib5ID3v212UnknownFrame8toStringEv,
                            __ZNK6TagLib5ID3v212UrlLinkFrame12asPropertiesEv,
                            __ZNK6TagLib5ID3v212UrlLinkFrame12renderFieldsEv,
                            __ZNK6TagLib5ID3v212UrlLinkFrame3urlEv,
                            __ZNK6TagLib5ID3v212UrlLinkFrame8toStringEv,
                            __ZNK6TagLib5ID3v213CommentsFrame11descriptionEv,
                            __ZNK6TagLib5ID3v213CommentsFrame12asPropertiesEv,
                            __ZNK6TagLib5ID3v213CommentsFrame12renderFieldsEv,
                            __ZNK6TagLib5ID3v213CommentsFrame12textEncodingEv,
                            __ZNK6TagLib5ID3v213CommentsFrame4textEv,
                            __ZNK6TagLib5ID3v213CommentsFrame8languageEv,
                            __ZNK6TagLib5ID3v213CommentsFrame8toStringEv,
                            __ZNK6TagLib5ID3v214ExtendedHeader4sizeEv,
                            __ZNK6TagLib5ID3v214OwnershipFrame12renderFieldsEv,
                            __ZNK6TagLib5ID3v214OwnershipFrame12textEncodingEv,
                            __ZNK6TagLib5ID3v214OwnershipFrame13datePurchasedEv,
                            __ZNK6TagLib5ID3v214OwnershipFrame6sellerEv,
                            __ZNK6TagLib5ID3v214OwnershipFrame8toStringEv,
                            __ZNK6TagLib5ID3v214OwnershipFrame9pricePaidEv,
                            __ZNK6TagLib5ID3v216UserUrlLinkFrame11descriptionEv,
                            __ZNK6TagLib5ID3v216UserUrlLinkFrame12asPropertiesEv,
                            __ZNK6TagLib5ID3v216UserUrlLinkFrame12renderFieldsEv,
                            __ZNK6TagLib5ID3v216UserUrlLinkFrame12textEncodingEv,
                            __ZNK6TagLib5ID3v216UserUrlLinkFrame8toStringEv,
                            __ZNK6TagLib5ID3v218PopularimeterFrame12renderFieldsEv,
                            __ZNK6TagLib5ID3v218PopularimeterFrame5emailEv,
                            __ZNK6TagLib5ID3v218PopularimeterFrame6ratingEv,
                            __ZNK6TagLib5ID3v218PopularimeterFrame7counterEv,
                            __ZNK6TagLib5ID3v218PopularimeterFrame8toStringEv,
                            __ZNK6TagLib5ID3v219Latin1StringHandler5parseERKNS_10ByteVectorE,
                            __ZNK6TagLib5ID3v219RelativeVolumeFrame10peakVolumeENS1_11ChannelTypeE,
                            __ZNK6TagLib5ID3v219RelativeVolumeFrame10peakVolumeEv,
                            __ZNK6TagLib5ID3v219RelativeVolumeFrame11channelTypeEv,
                            __ZNK6TagLib5ID3v219RelativeVolumeFrame12renderFieldsEv,
                            __ZNK6TagLib5ID3v219RelativeVolumeFrame14identificationEv,
                            __ZNK6TagLib5ID3v219RelativeVolumeFrame16volumeAdjustmentENS1_11ChannelTypeE,
                            __ZNK6TagLib5ID3v219RelativeVolumeFrame16volumeAdjustmentEv,
                            __ZNK6TagLib5ID3v219RelativeVolumeFrame21volumeAdjustmentIndexENS1_11ChannelTypeE,
                            __ZNK6TagLib5ID3v219RelativeVolumeFrame21volumeAdjustmentIndexEv,
                            __ZNK6TagLib5ID3v219RelativeVolumeFrame8channelsEv,
                            __ZNK6TagLib5ID3v219RelativeVolumeFrame8toStringEv,
                            __ZNK6TagLib5ID3v220AttachedPictureFrame11descriptionEv,
                            __ZNK6TagLib5ID3v220AttachedPictureFrame12renderFieldsEv,
                            __ZNK6TagLib5ID3v220AttachedPictureFrame12textEncodingEv,
                            __ZNK6TagLib5ID3v220AttachedPictureFrame4typeEv,
                            __ZNK6TagLib5ID3v220AttachedPictureFrame7pictureEv,
                            __ZNK6TagLib5ID3v220AttachedPictureFrame8mimeTypeEv,
                            __ZNK6TagLib5ID3v220AttachedPictureFrame8toStringEv,
                            __ZNK6TagLib5ID3v220TableOfContentsFrame10entryCountEv,
                            __ZNK6TagLib5ID3v220TableOfContentsFrame10isTopLevelEv,
                            __ZNK6TagLib5ID3v220TableOfContentsFrame12asPropertiesEv,
                            __ZNK6TagLib5ID3v220TableOfContentsFrame12renderFieldsEv,
                            __ZNK6TagLib5ID3v220TableOfContentsFrame13childElementsEv,
                            __ZNK6TagLib5ID3v220TableOfContentsFrame17embeddedFrameListERKNS_10ByteVectorE,
                            __ZNK6TagLib5ID3v220TableOfContentsFrame17embeddedFrameListEv,
                            __ZNK6TagLib5ID3v220TableOfContentsFrame20embeddedFrameListMapEv,
                            __ZNK6TagLib5ID3v220TableOfContentsFrame8toStringEv,
                            __ZNK6TagLib5ID3v220TableOfContentsFrame9elementIDEv,
                            __ZNK6TagLib5ID3v220TableOfContentsFrame9isOrderedEv,
                            __ZNK6TagLib5ID3v221EventTimingCodesFrame12renderFieldsEv,
                            __ZNK6TagLib5ID3v221EventTimingCodesFrame13synchedEventsEv,
                            __ZNK6TagLib5ID3v221EventTimingCodesFrame15timestampFormatEv,
                            __ZNK6TagLib5ID3v221EventTimingCodesFrame8toStringEv,
                            __ZNK6TagLib5ID3v223SynchronizedLyricsFrame11descriptionEv,
                            __ZNK6TagLib5ID3v223SynchronizedLyricsFrame11synchedTextEv,
                            __ZNK6TagLib5ID3v223SynchronizedLyricsFrame12renderFieldsEv,
                            __ZNK6TagLib5ID3v223SynchronizedLyricsFrame12textEncodingEv,
                            __ZNK6TagLib5ID3v223SynchronizedLyricsFrame15timestampFormatEv,
                            __ZNK6TagLib5ID3v223SynchronizedLyricsFrame4typeEv,
                            __ZNK6TagLib5ID3v223SynchronizedLyricsFrame8languageEv,
                            __ZNK6TagLib5ID3v223SynchronizedLyricsFrame8toStringEv,
                            __ZNK6TagLib5ID3v223TextIdentificationFrame12asPropertiesEv,
                            __ZNK6TagLib5ID3v223TextIdentificationFrame12renderFieldsEv,
                            __ZNK6TagLib5ID3v223TextIdentificationFrame12textEncodingEv,
                            __ZNK6TagLib5ID3v223TextIdentificationFrame18makeTIPLPropertiesEv,
                            __ZNK6TagLib5ID3v223TextIdentificationFrame18makeTMCLPropertiesEv,
                            __ZNK6TagLib5ID3v223TextIdentificationFrame8toStringEv,
                            __ZNK6TagLib5ID3v223TextIdentificationFrame9fieldListEv,
                            __ZNK6TagLib5ID3v225UniqueFileIdentifierFrame10identifierEv,
                            __ZNK6TagLib5ID3v225UniqueFileIdentifierFrame12asPropertiesEv,
                            __ZNK6TagLib5ID3v225UniqueFileIdentifierFrame12renderFieldsEv,
                            __ZNK6TagLib5ID3v225UniqueFileIdentifierFrame5ownerEv,
                            __ZNK6TagLib5ID3v225UniqueFileIdentifierFrame8toStringEv,
                            __ZNK6TagLib5ID3v225UnsynchronizedLyricsFrame11descriptionEv,
                            __ZNK6TagLib5ID3v225UnsynchronizedLyricsFrame12asPropertiesEv,
                            __ZNK6TagLib5ID3v225UnsynchronizedLyricsFrame12renderFieldsEv,
                            __ZNK6TagLib5ID3v225UnsynchronizedLyricsFrame12textEncodingEv,
                            __ZNK6TagLib5ID3v225UnsynchronizedLyricsFrame4textEv,
                            __ZNK6TagLib5ID3v225UnsynchronizedLyricsFrame8languageEv,
                            __ZNK6TagLib5ID3v225UnsynchronizedLyricsFrame8toStringEv,
                            __ZNK6TagLib5ID3v227UserTextIdentificationFrame11descriptionEv,
                            __ZNK6TagLib5ID3v227UserTextIdentificationFrame12asPropertiesEv,
                            __ZNK6TagLib5ID3v227UserTextIdentificationFrame8toStringEv,
                            __ZNK6TagLib5ID3v227UserTextIdentificationFrame9fieldListEv,
                            __ZNK6TagLib5ID3v230GeneralEncapsulatedObjectFrame11descriptionEv,
                            __ZNK6TagLib5ID3v230GeneralEncapsulatedObjectFrame12renderFieldsEv,
                            __ZNK6TagLib5ID3v230GeneralEncapsulatedObjectFrame12textEncodingEv,
                            __ZNK6TagLib5ID3v230GeneralEncapsulatedObjectFrame6objectEv,
                            __ZNK6TagLib5ID3v230GeneralEncapsulatedObjectFrame8fileNameEv,
                            __ZNK6TagLib5ID3v230GeneralEncapsulatedObjectFrame8mimeTypeEv,
                            __ZNK6TagLib5ID3v230GeneralEncapsulatedObjectFrame8toStringEv,
                            __ZNK6TagLib5ID3v23Tag10propertiesEv,
                            __ZNK6TagLib5ID3v23Tag12frameListMapEv,
                            __ZNK6TagLib5ID3v23Tag14extendedHeaderEv,
                            __ZNK6TagLib5ID3v23Tag15downgradeFramesEPNS_4ListIPNS0_5FrameEEES6_,
                            __ZNK6TagLib5ID3v23Tag4yearEv,
                            __ZNK6TagLib5ID3v23Tag5albumEv,
                            __ZNK6TagLib5ID3v23Tag5genreEv,
                            __ZNK6TagLib5ID3v23Tag5titleEv,
                            __ZNK6TagLib5ID3v23Tag5trackEv,
                            __ZNK6TagLib5ID3v23Tag6artistEv,
                            __ZNK6TagLib5ID3v23Tag6footerEv,
                            __ZNK6TagLib5ID3v23Tag6headerEv,
                            __ZNK6TagLib5ID3v23Tag6renderEi,
                            __ZNK6TagLib5ID3v23Tag6renderEv,
                            __ZNK6TagLib5ID3v23Tag7commentEv,
                            __ZNK6TagLib5ID3v23Tag7isEmptyEv,
                            __ZNK6TagLib5ID3v23Tag9frameListERKNS_10ByteVectorE,
                            __ZNK6TagLib5ID3v23Tag9frameListEv,
                            __ZNK6TagLib5ID3v25Frame12asPropertiesEv,
                            __ZNK6TagLib5ID3v25Frame17checkTextEncodingERKNS_10StringListENS_6String4TypeE,
                            __ZNK6TagLib5ID3v25Frame4sizeEv,
                            __ZNK6TagLib5ID3v25Frame6Header10encryptionEv,
                            __ZNK6TagLib5ID3v25Frame6Header11compressionEv,
                            __ZNK6TagLib5ID3v25Frame6Header15unsycronisationEv,
                            __ZNK6TagLib5ID3v25Frame6Header16groupingIdentityEv,
                            __ZNK6TagLib5ID3v25Frame6Header17unsynchronisationEv,
                            __ZNK6TagLib5ID3v25Frame6Header19dataLengthIndicatorEv,
                            __ZNK6TagLib5ID3v25Frame6Header20tagAlterPreservationEv,
                            __ZNK6TagLib5ID3v25Frame6Header21fileAlterPreservationEv,
                            __ZNK6TagLib5ID3v25Frame6Header22frameAlterPreservationEv,
                            __ZNK6TagLib5ID3v25Frame6Header6renderEv,
                            __ZNK6TagLib5ID3v25Frame6Header7frameIDEv,
                            __ZNK6TagLib5ID3v25Frame6Header7versionEv,
                            __ZNK6TagLib5ID3v25Frame6Header8readOnlyEv,
                            __ZNK6TagLib5ID3v25Frame6Header9frameSizeEv,
                            __ZNK6TagLib5ID3v25Frame6headerEv,
                            __ZNK6TagLib5ID3v25Frame6renderEv,
                            __ZNK6TagLib5ID3v25Frame7frameIDEv,
                            __ZNK6TagLib5ID3v25Frame9fieldDataERKNS_10ByteVectorE,
                            __ZNK6TagLib5ID3v26Footer6renderEPKNS0_6HeaderE,
                            __ZNK6TagLib5ID3v26Header12majorVersionEv,
                            __ZNK6TagLib5ID3v26Header13footerPresentEv,
                            __ZNK6TagLib5ID3v26Header14extendedHeaderEv,
                            __ZNK6TagLib5ID3v26Header14revisionNumberEv,
                            __ZNK6TagLib5ID3v26Header15completeTagSizeEv,
                            __ZNK6TagLib5ID3v26Header17unsynchronisationEv,
                            __ZNK6TagLib5ID3v26Header21experimentalIndicatorEv,
                            __ZNK6TagLib5ID3v26Header6renderEv,
                            __ZNK6TagLib5ID3v26Header7tagSizeEv,
                            __ZNK6TagLib6String10startsWithERKS0_,
                            __ZNK6TagLib6String10toCWStringEv,
                            __ZNK6TagLib6String15stripWhiteSpaceEv,
                            __ZNK6TagLib6String3endEv,
                            __ZNK6TagLib6String4dataENS0_4TypeE,
                            __ZNK6TagLib6String4findERKS0_i,
                            __ZNK6TagLib6String4sizeEv,
                            __ZNK6TagLib6String5beginEv,
                            __ZNK6TagLib6String5rfindERKS0_i,
                            __ZNK6TagLib6String5splitERKS0_,
                            __ZNK6TagLib6String5toIntEPb,
                            __ZNK6TagLib6String5toIntEv,
                            __ZNK6TagLib6String5upperEv,
                            __ZNK6TagLib6String6isNullEv,
                            __ZNK6TagLib6String6lengthEv,
                            __ZNK6TagLib6String6substrEjj,
                            __ZNK6TagLib6String6to8BitEb,
                            __ZNK6TagLib6String7isAsciiEv,
                            __ZNK6TagLib6String7isEmptyEv,
                            __ZNK6TagLib6String8isLatin1Ev,
                            __ZNK6TagLib6String9toCStringEb,
                            __ZNK6TagLib6String9toWStringEv,
                            __ZNK6TagLib6StringeqEPKc, __ZNK6TagLib6StringeqEPKw,
                            __ZNK6TagLib6StringeqERKS0_, __ZNK6TagLib6StringixEi,
                            __ZNK6TagLib6StringltERKS0_,
                            __ZNK6TagLib6StringneEPKc, __ZNK6TagLib6StringneEPKw,
                            __ZNK6TagLib6StringneERKS0_,
                            __ZNK6TagLib6Vorbis10Properties10sampleRateEv,
                            __ZNK6TagLib6Vorbis10Properties13vorbisVersionEv,
                            __ZNK6TagLib6Vorbis10Properties14bitrateMaximumEv,
                            __ZNK6TagLib6Vorbis10Properties14bitrateMinimumEv,
                            __ZNK6TagLib6Vorbis10Properties14bitrateNominalEv,
                            __ZNK6TagLib6Vorbis10Properties15lengthInSecondsEv,
                            __ZNK6TagLib6Vorbis10Properties20lengthInMillisecondsEv,
                            __ZNK6TagLib6Vorbis10Properties6lengthEv,
                            __ZNK6TagLib6Vorbis10Properties7bitrateEv,
                            __ZNK6TagLib6Vorbis10Properties8channelsEv,
                            __ZNK6TagLib6Vorbis4File10propertiesEv,
                            __ZNK6TagLib6Vorbis4File15audioPropertiesEv,
                            __ZNK6TagLib6Vorbis4File3tagEv,
                            __ZNK6TagLib7FileRef15audioPropertiesEv,
                            __ZNK6TagLib7FileRef3tagEv,
                            __ZNK6TagLib7FileRef4fileEv,
                            __ZNK6TagLib7FileRef6isNullEv,
                            __ZNK6TagLib7FileRefeqERKS0_,
                            __ZNK6TagLib7FileRefneERKS0_,
                            __ZNK6TagLib7WavPack10Properties10isLosslessEv,
                            __ZNK6TagLib7WavPack10Properties10sampleRateEv,
                            __ZNK6TagLib7WavPack10Properties12sampleFramesEv,
                            __ZNK6TagLib7WavPack10Properties13bitsPerSampleEv,
                            __ZNK6TagLib7WavPack10Properties15lengthInSecondsEv,
                            __ZNK6TagLib7WavPack10Properties20lengthInMillisecondsEv,
                            __ZNK6TagLib7WavPack10Properties6lengthEv,
                            __ZNK6TagLib7WavPack10Properties7bitrateEv,
                            __ZNK6TagLib7WavPack10Properties7versionEv,
                            __ZNK6TagLib7WavPack10Properties8channelsEv,
                            __ZNK6TagLib7WavPack4File10propertiesEv,
                            __ZNK6TagLib7WavPack4File11hasID3v1TagEv,
                            __ZNK6TagLib7WavPack4File15audioPropertiesEv,
                            __ZNK6TagLib7WavPack4File3tagEv,
                            __ZNK6TagLib7WavPack4File9hasAPETagEv,
                            __ZNK6TagLib8TagUnion10propertiesEv,
                            __ZNK6TagLib8TagUnion3tagEi,
                            __ZNK6TagLib8TagUnion4yearEv,
                            __ZNK6TagLib8TagUnion5albumEv,
                            __ZNK6TagLib8TagUnion5genreEv,
                            __ZNK6TagLib8TagUnion5titleEv,
                            __ZNK6TagLib8TagUnion5trackEv,
                            __ZNK6TagLib8TagUnion6artistEv,
                            __ZNK6TagLib8TagUnion7commentEv,
                            __ZNK6TagLib8TagUnion7isEmptyEv,
                            __ZNK6TagLib8TagUnionixEi,
                            __ZNK6TagLib9TrueAudio10Properties10sampleRateEv,
                            __ZNK6TagLib9TrueAudio10Properties10ttaVersionEv,
                            __ZNK6TagLib9TrueAudio10Properties12sampleFramesEv,
                            __ZNK6TagLib9TrueAudio10Properties13bitsPerSampleEv,
                            __ZNK6TagLib9TrueAudio10Properties15lengthInSecondsEv,
                            __ZNK6TagLib9TrueAudio10Properties20lengthInMillisecondsEv,
                            __ZNK6TagLib9TrueAudio10Properties6lengthEv,
                            __ZNK6TagLib9TrueAudio10Properties7bitrateEv,
                            __ZNK6TagLib9TrueAudio10Properties8channelsEv,
                            __ZNK6TagLib9TrueAudio4File10propertiesEv,
                            __ZNK6TagLib9TrueAudio4File11hasID3v1TagEv,
                            __ZNK6TagLib9TrueAudio4File11hasID3v2TagEv,
                            __ZNK6TagLib9TrueAudio4File15audioPropertiesEv,
                            __ZNK6TagLib9TrueAudio4File3tagEv,
                            __ZNK7RTPSink10rtpmapLineEv,
                            __ZNK7RTPSink12sdpMediaTypeEv,
                            __ZNK7RTPSink9isRTPSinkEv, __ZNK7TimevalgeERKS_,
                            __ZNK7libebml10EbmlBinarycvRKhEv,
                            __ZNK7libebml10EbmlBinaryeqERKS0_,
                            __ZNK7libebml10EbmlMaster11FindNextEltERKNS_11EbmlElementE,
                            __ZNK7libebml10EbmlMaster12FindFirstEltERKNS_13EbmlCallbacksE,
                            __ZNK7libebml10EbmlMaster14CheckMandatoryEv,
                            __ZNK7libebml10EbmlMaster14VerifyChecksumEv,
                            __ZNK7libebml10EbmlMaster7FindEltERKNS_13EbmlCallbacksE,
                            __ZNK7libebml10EbmlString10DefaultValEv,
                            __ZNK7libebml10EbmlString8GetValueEv,
                            __ZNK7libebml10EbmlStringcvRKNSt3__112basic_stringIcNS1_11char_traitsIcEENS1_9allocatorIcEEEEEv,
                            __ZNK7libebml11EbmlElement11ElementSizeEb,
                            __ZNK7libebml11EbmlElement13IsSmallerThanEPKS0_,
                            __ZNK7libebml12EbmlSInteger13IsSmallerThanEPKNS_11EbmlElementE,
                            __ZNK7libebml12EbmlSInteger8GetValueEv,
                            __ZNK7libebml12EbmlSIntegercvaEv,
                            __ZNK7libebml12EbmlSIntegercviEv,
                            __ZNK7libebml12EbmlSIntegercvsEv,
                            __ZNK7libebml12EbmlSIntegercvxEv,
                            __ZNK7libebml12EbmlUInteger10DefaultValEv,
                            __ZNK7libebml12EbmlUInteger13IsSmallerThanEPKNS_11EbmlElementE,
                            __ZNK7libebml12EbmlUInteger8GetValueEv,
                            __ZNK7libebml12EbmlUIntegercvhEv,
                            __ZNK7libebml12EbmlUIntegercvjEv,
                            __ZNK7libebml12EbmlUIntegercvtEv,
                            __ZNK7libebml12EbmlUIntegercvyEv,
                            __ZNK7libebml17EbmlUnicodeString10DefaultValEv,
                            __ZNK7libebml17EbmlUnicodeString12GetValueUTF8Ev,
                            __ZNK7libebml17EbmlUnicodeString8GetValueEv,
                            __ZNK7libebml17EbmlUnicodeStringcvRKNS_9UTFstringEEv,
                            __ZNK7libebml18SafeReadIOCallback11GetPositionEv,
                            __ZNK7libebml18SafeReadIOCallback17GetRemainingBytesEv,
                            __ZNK7libebml18SafeReadIOCallback7GetSizeEv,
                            __ZNK7libebml18SafeReadIOCallback7IsEmptyEv,
                            __ZNK7libebml19EbmlSemanticContext11GetSemanticEm,
                            __ZNK7libebml8EbmlDate13IsSmallerThanEPKNS_11EbmlElementE,
                            __ZNK7libebml9EbmlFloat10DefaultValEv,
                            __ZNK7libebml9EbmlFloat13IsSmallerThanEPKNS_11EbmlElementE,
                            __ZNK7libebml9EbmlFloat8GetValueEv,
                            __ZNK7libebml9EbmlFloatcvdEv,
                            __ZNK7libebml9EbmlFloatcvfEv,
                            __ZNK7libebml9UTFstringcvPKwEv,
                            __ZNK7libebml9UTFstringeqERKS0_,
                            __ZNK8GroupEId5isSSMEv, __ZNK8SDESItem9totalSizeEv,
                            __ZNK9Groupsock30lookupSessionIdFromDestinationERK11sockaddr_in,
                            __ZNK9Groupsock31lookupDestRecordFromDestinationERK11sockaddr_in,
                            __ZNK9MediaSink6isSinkEv,
                            __ZNK9MediaSink9isRTPSinkEv,
                            __ZNK9RTPSource11isRTPSourceEv,
                            __ZNK9RTPSource13getAttributesEv, __ZTI10DelayQueue,
                            __ZTI10HandlerSet, __ZTI10NetAddress,
                            __ZTI10RTSPClient, __ZTI10RTSPServer,
                            __ZTI10destRecord, __ZTI11MediaSource,
                            __ZTI11StreamState, __ZTI11TextRTPSink,
                            __ZTI12AudioRTPSink, __ZTI12BasicUDPSink,
                            __ZTI12FramedFilter, __ZTI12FramedSource,
                            __ZTI12Interleaving, __ZTI12MediaSession,
                            __ZTI12NetInterface, __ZTI12OutputSocket,
                            __ZTI12RTCPInstance, __ZTI12RTPInterface,
                            __ZTI12SDPAttribute, __ZTI12StreamParser,
                            __ZTI12VideoRTPSink, __ZTI13AddressString,
                            __ZTI13Authenticator, __ZTI13MP3ADURTPSink,
                            __ZTI13SimpleRTPSink, __ZTI13TaskScheduler,
                            __ZTI14AMRAudioSource, __ZTI14BasicHashTable,
                            __ZTI14BasicUDPSource, __ZTI14BufferedPacket,
                            __ZTI14CAmbisonicBase, __ZTI14DVVideoRTPSink,
                            __ZTI14NetAddressList, __ZTI14T140IdleFilter,
                            __ZTI15AC3AudioRTPSink, __ZTI15DelayQueueEntry,
                            __ZTI15GSMAudioRTPSink, __ZTI15HandlerIterator,
                            __ZTI15MP3ADURTPSource, __ZTI15MediaSubsession,
                            __ZTI15ProxyRTSPClient, __ZTI15RawAMRRTPSource,
                            __ZTI15SimpleRTPSource, __ZTI15T140TextRTPSink,
                            __ZTI15VP8VideoRTPSink, __ZTI15VP9VideoRTPSink,
                            __ZTI15tcpStreamRecord, __ZTI16ADUFromMP3Source,
                            __ZTI16AMRDeinterleaver, __ZTI16CAmbisonicSource,
                            __ZTI16CAmbisonicZoomer, __ZTI16DVVideoRTPSource,
                            __ZTI16H264VideoRTPSink, __ZTI16H265VideoRTPSink,
                            __ZTI16MP3FromADUSource, __ZTI16MediaLookupTable,
                            __ZTI16SocketDescriptor, __ZTI16UsageEnvironment,
                            __ZTI17AC3AudioRTPSource, __ZTI17ADUBufferedPacket,
                            __ZTI17AMRBufferedPacket, __ZTI17CAmbisonicDecoder,
                            __ZTI17CAmbisonicEncoder, __ZTI17CAmbisonicSpeaker,
                            __ZTI17H264or5Fragmenter, __ZTI17HandlerDescriptor,
                            __ZTI17MP3ADUinterleaver, __ZTI17RTPReceptionStats,
                            __ZTI17RawQCELPRTPSource, __ZTI17SocketLookupTable,
                            __ZTI17VP8VideoRTPSource, __ZTI17VP9VideoRTPSource,
                            __ZTI18BasicTaskScheduler, __ZTI18GenericMediaServer,
                            __ZTI18H261VideoRTPSource, __ZTI18H264BufferedPacket,
                            __ZTI18H264VideoRTPSource, __ZTI18H265BufferedPacket,
                            __ZTI18H265VideoRTPSource, __ZTI18InterleavingFrames,
                            __ZTI18JPEGBufferedPacket, __ZTI18JPEGVideoRTPSource,
                            __ZTI18LATMBufferedPacket, __ZTI18MultiFramedRTPSink,
                            __ZTI18QCELPDeinterleaver, __ZTI18RTSPRegisterSender,
                            __ZTI18ServerMediaSession, __ZTI18TheoraVideoRTPSink,
                            __ZTI18VorbisAudioRTPSink,
                            __ZTI19BasicTaskScheduler0,
                            __ZTI19CAmbisonicProcessor,
                            __ZTI19DVVideoStreamFramer,
                            __ZTI19H264or5VideoRTPSink,
                            __ZTI19MP3ADUdeinterleaver,
                            __ZTI19MPEG4ESVideoRTPSink,
                            __ZTI19MPEG4GenericRTPSink,
                            __ZTI19QCELPBufferedPacket,
                            __ZTI19RTPReceptionStatsDB,
                            __ZTI20DeinterleavingFrames,
                            __ZTI20DirectedNetInterface,
                            __ZTI20H263plusVideoRTPSink,
                            __ZTI20MPEG1or2AudioRTPSink,
                            __ZTI20MPEG1or2VideoRTPSink,
                            __ZTI20MultiFramedRTPSource,
                            __ZTI20RTPTransmissionStats,
                            __ZTI20RTSPDeregisterSender,
                            __ZTI20SpeakersBinauralizer,
                            __ZTI20TheoraBufferedPacket,
                            __ZTI20TheoraVideoRTPSource,
                            __ZTI20VorbisAudioRTPSource,
                            __ZTI20VorbisBufferedPacket,
                            __ZTI21BasicUsageEnvironment,
                            __ZTI21BufferedPacketFactory,
                            __ZTI21MP3ADUinterleaverBase,
                            __ZTI21MPEG4ESVideoRTPSource,
                            __ZTI21MPEG4GenericRTPSource,
                            __ZTI21MPEG4LATMAudioRTPSink,
                            __ZTI21MPEGVideoStreamFramer,
                            __ZTI21MPEGVideoStreamParser,
                            __ZTI21ServerMediaSubsession,
                            __ZTI22AddressPortLookupTable,
                            __ZTI22BasicUsageEnvironment0,
                            __ZTI22CAmbisonicBinauralizer,
                            __ZTI22H263plusVideoRTPSource,
                            __ZTI22MPEG1or2AudioRTPSource,
                            __ZTI22MPEG1or2VideoRTPSource,
                            __ZTI22MPEG4VideoStreamFramer,
                            __ZTI22MPEG4VideoStreamParser,
                            __ZTI22RTPTransmissionStatsDB,
                            __ZTI22ReorderingPacketBuffer,
                            __ZTI23AMRDeinterleavingBuffer,
                            __ZTI23DirectedNetInterfaceSet,
                            __ZTI23MPEG4LATMAudioRTPSource,
                            __ZTI23MediaSubsessionIterator,
                            __ZTI23ProxyServerMediaSession,
                            __ZTI23QTGenericBufferedPacket,
                            __ZTI24ADUBufferedPacketFactory,
                            __ZTI24AMRBufferedPacketFactory,
                            __ZTI24H264or5VideoStreamFramer,
                            __ZTI24H264or5VideoStreamParser,
                            __ZTI25H264BufferedPacketFactory,
                            __ZTI25H265BufferedPacketFactory,
                            __ZTI25JPEGBufferedPacketFactory,
                            __ZTI25LATMBufferedPacketFactory,
                            __ZTI25MPEG1or2VideoStreamFramer,
                            __ZTI25MPEG1or2VideoStreamParser,
                            __ZTI25QCELPDeinterleavingBuffer,
                            __ZTI25QuickTimeGenericRTPSource,
                            __ZTI26MPEG2TransportStreamFramer,
                            __ZTI26MPEG4GenericBufferedPacket,
                            __ZTI26ProxyServerMediaSubsession,
                            __ZTI26QCELPBufferedPacketFactory,
                            __ZTI26UserAuthenticationDatabase,
                            __ZTI27TheoraBufferedPacketFactory,
                            __ZTI27VorbisBufferedPacketFactory,
                            __ZTI29H264VideoStreamDiscreteFramer,
                            __ZTI29H265VideoStreamDiscreteFramer,
                            __ZTI29OnDemandServerMediaSubsession,
                            __ZTI29ServerMediaSubsessionIterator,
                            __ZTI30MPEG4VideoStreamDiscreteFramer,
                            __ZTI30QTGenericBufferedPacketFactory,
                            __ZTI30RTSPRegisterOrDeregisterSender,
                            __ZTI30RTSPServerWithREGISTERProxying,
                            __ZTI31HandlerServerForREGISTERCommand,
                            __ZTI32H264or5VideoStreamDiscreteFramer,
                            __ZTI33MPEG1or2VideoStreamDiscreteFramer,
                            __ZTI33MPEG4GenericBufferedPacketFactory,
                            __ZTI33PresentationTimeSessionNormalizer,
                            __ZTI36PresentationTimeSubsessionNormalizer,
                            __ZTI6Locale, __ZTI6Medium, __ZTI6Socket, __ZTI7RTPSink,
                            __ZTI7_Tables, __ZTI8CBFormat, __ZTI8TimeCode,
                            __ZTI9Groupsock, __ZTI9HashTable, __ZTI9MediaSink,
                            __ZTI9RTPSource, __ZTI9SOFA_HRTF,
                            __ZTIN10RTSPClient12RequestQueueE,
                            __ZTIN10RTSPClient13RequestRecordE,
                            __ZTIN10RTSPServer17RTSPClientSessionE,
                            __ZTIN10RTSPServer20RTSPClientConnection17ParamsForREGISTERE,
                            __ZTIN10RTSPServer20RTSPClientConnectionE,
                            __ZTIN11libmatroska10DataBufferE,
                            __ZTIN11libmatroska11KaxCuePointE,
                            __ZTIN11libmatroska12KaxTimeSliceE,
                            __ZTIN11libmatroska13KaxSliceDelayE,
                            __ZTIN11libmatroska13KaxVideoGammaE,
                            __ZTIN11libmatroska14KaxTrackOffsetE,
                            __ZTIN11libmatroska15KaxBlockVirtualE,
                            __ZTIN11libmatroska15KaxCodecInfoURLE,
                            __ZTIN11libmatroska15KaxCueRefNumberE,
                            __ZTIN11libmatroska15KaxFileReferralE,
                            __ZTIN11libmatroska16KaxAudioPositionE,
                            __ZTIN11libmatroska16KaxCodecSettingsE,
                            __ZTIN11libmatroska16KaxCueRefClusterE,
                            __ZTIN11libmatroska16KaxInternalBlockE,
                            __ZTIN11libmatroska16KaxOldStereoModeE,
                            __ZTIN11libmatroska16KaxSliceDurationE,
                            __ZTIN11libmatroska17KaxEncryptedBlockE,
                            __ZTIN11libmatroska17KaxReferenceBlockE,
                            __ZTIN11libmatroska17KaxVideoFrameRateE,
                            __ZTIN11libmatroska18KaxFileUsedEndTimeE,
                            __ZTIN11libmatroska18KaxSliceBlockAddIDE,
                            __ZTIN11libmatroska18KaxSliceLaceNumberE,
                            __ZTIN11libmatroska19KaxCodecDownloadURLE,
                            __ZTIN11libmatroska19KaxCueRefCodecStateE,
                            __ZTIN11libmatroska19KaxReferenceVirtualE,
                            __ZTIN11libmatroska19KaxSliceFrameNumberE,
                            __ZTIN11libmatroska20KaxFileUsedStartTimeE,
                            __ZTIN11libmatroska22KaxTrackAttachmentLinkE,
                            __ZTIN11libmatroska7KaxCuesE,
                            __ZTIN14BasicHashTable8IteratorE,
                            __ZTIN18GenericMediaServer13ClientSessionE,
                            __ZTIN18GenericMediaServer16ClientConnectionE,
                            __ZTIN18GenericMediaServer26ServerMediaSessionIteratorE,
                            __ZTIN18RTSPRegisterSender22RequestRecord_REGISTERE,
                            __ZTIN19RTPReceptionStatsDB8IteratorE,
                            __ZTIN20RTSPDeregisterSender24RequestRecord_DEREGISTERE,
                            __ZTIN22AddressPortLookupTable8IteratorE,
                            __ZTIN22RTPTransmissionStatsDB8IteratorE,
                            __ZTIN23AMRDeinterleavingBuffer15FrameDescriptorE,
                            __ZTIN23DirectedNetInterfaceSet8IteratorE,
                            __ZTIN25QCELPDeinterleavingBuffer15FrameDescriptorE,
                            __ZTIN30RTSPRegisterOrDeregisterSender36RequestRecord_REGISTER_or_DEREGISTERE,
                            __ZTIN6TagLib10ByteVectorE,
                            __ZTIN6TagLib10FileStreamE,
                            __ZTIN6TagLib10RefCounterE,
                            __ZTIN6TagLib10StringListE,
                            __ZTIN6TagLib11PropertyMapE,
                            __ZTIN6TagLib14ByteVectorListE,
                            __ZTIN6TagLib15AudioPropertiesE,
                            __ZTIN6TagLib2IT10PropertiesE,
                            __ZTIN6TagLib2IT4FileE,
                            __ZTIN6TagLib2XM10PropertiesE,
                            __ZTIN6TagLib2XM4FileE,
                            __ZTIN6TagLib3APE10PropertiesE,
                            __ZTIN6TagLib3APE3TagE, __ZTIN6TagLib3APE4FileE,
                            __ZTIN6TagLib3APE4ItemE, __ZTIN6TagLib3APE6FooterE,
                            __ZTIN6TagLib3ASF10PropertiesE,
                            __ZTIN6TagLib3ASF3TagE,
                            __ZTIN6TagLib3ASF4File11FilePrivate10BaseObjectE,
                            __ZTIN6TagLib3ASF4File11FilePrivate13UnknownObjectE,
                            __ZTIN6TagLib3ASF4File11FilePrivate14MetadataObjectE,
                            __ZTIN6TagLib3ASF4File11FilePrivate15CodecListObjectE,
                            __ZTIN6TagLib3ASF4File11FilePrivate20FilePropertiesObjectE,
                            __ZTIN6TagLib3ASF4File11FilePrivate21HeaderExtensionObjectE,
                            __ZTIN6TagLib3ASF4File11FilePrivate21MetadataLibraryObjectE,
                            __ZTIN6TagLib3ASF4File11FilePrivate22StreamPropertiesObjectE,
                            __ZTIN6TagLib3ASF4File11FilePrivate24ContentDescriptionObjectE,
                            __ZTIN6TagLib3ASF4File11FilePrivate32ExtendedContentDescriptionObjectE,
                            __ZTIN6TagLib3ASF4FileE, __ZTIN6TagLib3ASF7PictureE,
                            __ZTIN6TagLib3ASF9AttributeE,
                            __ZTIN6TagLib3MP410PropertiesE,
                            __ZTIN6TagLib3MP43TagE, __ZTIN6TagLib3MP44FileE,
                            __ZTIN6TagLib3MPC10PropertiesE,
                            __ZTIN6TagLib3MPC4FileE,
                            __ZTIN6TagLib3Mod10PropertiesE,
                            __ZTIN6TagLib3Mod3TagE, __ZTIN6TagLib3Mod4FileE,
                            __ZTIN6TagLib3Ogg10PageHeaderE,
                            __ZTIN6TagLib3Ogg11XiphCommentE,
                            __ZTIN6TagLib3Ogg4FLAC4FileE,
                            __ZTIN6TagLib3Ogg4FileE,
                            __ZTIN6TagLib3Ogg4Opus10PropertiesE,
                            __ZTIN6TagLib3Ogg4Opus4FileE,
                            __ZTIN6TagLib3Ogg4PageE,
                            __ZTIN6TagLib3Ogg5Speex10PropertiesE,
                            __ZTIN6TagLib3Ogg5Speex4FileE,
                            __ZTIN6TagLib3S3M10PropertiesE,
                            __ZTIN6TagLib3S3M4FileE, __ZTIN6TagLib3TagE,
                            __ZTIN6TagLib4FLAC10PropertiesE,
                            __ZTIN6TagLib4FLAC13MetadataBlockE,
                            __ZTIN6TagLib4FLAC20UnknownMetadataBlockE,
                            __ZTIN6TagLib4FLAC4FileE,
                            __ZTIN6TagLib4FLAC7PictureE, __ZTIN6TagLib4FileE,
                            __ZTIN6TagLib4MPEG10PropertiesE,
                            __ZTIN6TagLib4MPEG10XingHeaderE,
                            __ZTIN6TagLib4MPEG4FileE, __ZTIN6TagLib4MPEG6HeaderE,
                            __ZTIN6TagLib4RIFF3WAV10PropertiesE,
                            __ZTIN6TagLib4RIFF3WAV4FileE,
                            __ZTIN6TagLib4RIFF4AIFF10PropertiesE,
                            __ZTIN6TagLib4RIFF4AIFF4FileE,
                            __ZTIN6TagLib4RIFF4FileE,
                            __ZTIN6TagLib4RIFF4Info13StringHandlerE,
                            __ZTIN6TagLib4RIFF4Info3TagE,
                            __ZTIN6TagLib5ID3v113StringHandlerE,
                            __ZTIN6TagLib5ID3v13TagE,
                            __ZTIN6TagLib5ID3v212ChapterFrameE,
                            __ZTIN6TagLib5ID3v212FrameFactoryE,
                            __ZTIN6TagLib5ID3v212PodcastFrameE,
                            __ZTIN6TagLib5ID3v212PrivateFrameE,
                            __ZTIN6TagLib5ID3v212UnknownFrameE,
                            __ZTIN6TagLib5ID3v212UrlLinkFrameE,
                            __ZTIN6TagLib5ID3v213CommentsFrameE,
                            __ZTIN6TagLib5ID3v214ExtendedHeaderE,
                            __ZTIN6TagLib5ID3v214OwnershipFrameE,
                            __ZTIN6TagLib5ID3v216UserUrlLinkFrameE,
                            __ZTIN6TagLib5ID3v218PopularimeterFrameE,
                            __ZTIN6TagLib5ID3v219Latin1StringHandlerE,
                            __ZTIN6TagLib5ID3v219RelativeVolumeFrameE,
                            __ZTIN6TagLib5ID3v220AttachedPictureFrameE,
                            __ZTIN6TagLib5ID3v220TableOfContentsFrameE,
                            __ZTIN6TagLib5ID3v221EventTimingCodesFrameE,
                            __ZTIN6TagLib5ID3v223AttachedPictureFrameV22E,
                            __ZTIN6TagLib5ID3v223SynchronizedLyricsFrameE,
                            __ZTIN6TagLib5ID3v223TextIdentificationFrameE,
                            __ZTIN6TagLib5ID3v225UniqueFileIdentifierFrameE,
                            __ZTIN6TagLib5ID3v225UnsynchronizedLyricsFrameE,
                            __ZTIN6TagLib5ID3v227UserTextIdentificationFrameE,
                            __ZTIN6TagLib5ID3v230GeneralEncapsulatedObjectFrameE,
                            __ZTIN6TagLib5ID3v23TagE,
                            __ZTIN6TagLib5ID3v25Frame6HeaderE,
                            __ZTIN6TagLib5ID3v25FrameE,
                            __ZTIN6TagLib5ID3v26FooterE,
                            __ZTIN6TagLib5ID3v26HeaderE, __ZTIN6TagLib6StringE,
                            __ZTIN6TagLib6Vorbis10PropertiesE,
                            __ZTIN6TagLib6Vorbis4FileE, __ZTIN6TagLib7FileRefE,
                            __ZTIN6TagLib7WavPack10PropertiesE,
                            __ZTIN6TagLib7WavPack4FileE, __ZTIN6TagLib8IOStreamE,
                            __ZTIN6TagLib8TagUnionE,
                            __ZTIN6TagLib9TrueAudio10PropertiesE,
                            __ZTIN6TagLib9TrueAudio4FileE,
                            __ZTIN7libebml10EbmlBinaryE,
                            __ZTIN7libebml10EbmlMasterE,
                            __ZTIN7libebml10EbmlStringE,
                            __ZTIN7libebml11EbmlElementE,
                            __ZTIN7libebml12EbmlSIntegerE,
                            __ZTIN7libebml12EbmlUIntegerE,
                            __ZTIN7libebml13MemIOCallbackE,
                            __ZTIN7libebml13StdIOCallbackE,
                            __ZTIN7libebml17EbmlUnicodeStringE,
                            __ZTIN7libebml17MemReadIOCallbackE,
                            __ZTIN7libebml8EbmlDateE, __ZTIN7libebml8EbmlVoidE,
                            __ZTIN7libebml9EbmlCrc32E, __ZTIN7libebml9EbmlDummyE,
                            __ZTIN7libebml9EbmlFloatE, __ZTIN7libebml9UTFstringE,
                            __ZTIN9HashTable8IteratorE, __ZTS10DelayQueue,
                            __ZTS10HandlerSet, __ZTS10NetAddress,
                            __ZTS10RTSPClient, __ZTS10RTSPServer,
                            __ZTS10destRecord, __ZTS11MediaSource,
                            __ZTS11StreamState, __ZTS11TextRTPSink,
                            __ZTS12AudioRTPSink, __ZTS12BasicUDPSink,
                            __ZTS12FramedFilter, __ZTS12FramedSource,
                            __ZTS12Interleaving, __ZTS12MediaSession,
                            __ZTS12NetInterface, __ZTS12OutputSocket,
                            __ZTS12RTCPInstance, __ZTS12RTPInterface,
                            __ZTS12SDPAttribute, __ZTS12StreamParser,
                            __ZTS12VideoRTPSink, __ZTS13AddressString,
                            __ZTS13Authenticator, __ZTS13MP3ADURTPSink,
                            __ZTS13SimpleRTPSink, __ZTS13TaskScheduler,
                            __ZTS14AMRAudioSource, __ZTS14BasicHashTable,
                            __ZTS14BasicUDPSource, __ZTS14BufferedPacket,
                            __ZTS14CAmbisonicBase, __ZTS14DVVideoRTPSink,
                            __ZTS14NetAddressList, __ZTS14T140IdleFilter,
                            __ZTS15AC3AudioRTPSink, __ZTS15DelayQueueEntry,
                            __ZTS15GSMAudioRTPSink, __ZTS15HandlerIterator,
                            __ZTS15MP3ADURTPSource, __ZTS15MediaSubsession,
                            __ZTS15ProxyRTSPClient, __ZTS15RawAMRRTPSource,
                            __ZTS15SimpleRTPSource, __ZTS15T140TextRTPSink,
                            __ZTS15VP8VideoRTPSink, __ZTS15VP9VideoRTPSink,
                            __ZTS15tcpStreamRecord, __ZTS16ADUFromMP3Source,
                            __ZTS16AMRDeinterleaver, __ZTS16CAmbisonicSource,
                            __ZTS16CAmbisonicZoomer, __ZTS16DVVideoRTPSource,
                            __ZTS16H264VideoRTPSink, __ZTS16H265VideoRTPSink,
                            __ZTS16MP3FromADUSource, __ZTS16MediaLookupTable,
                            __ZTS16SocketDescriptor, __ZTS16UsageEnvironment,
                            __ZTS17AC3AudioRTPSource, __ZTS17ADUBufferedPacket,
                            __ZTS17AMRBufferedPacket, __ZTS17CAmbisonicDecoder,
                            __ZTS17CAmbisonicEncoder, __ZTS17CAmbisonicSpeaker,
                            __ZTS17H264or5Fragmenter, __ZTS17HandlerDescriptor,
                            __ZTS17MP3ADUinterleaver, __ZTS17RTPReceptionStats,
                            __ZTS17RawQCELPRTPSource, __ZTS17SocketLookupTable,
                            __ZTS17VP8VideoRTPSource, __ZTS17VP9VideoRTPSource,
                            __ZTS18BasicTaskScheduler, __ZTS18GenericMediaServer,
                            __ZTS18H261VideoRTPSource, __ZTS18H264BufferedPacket,
                            __ZTS18H264VideoRTPSource, __ZTS18H265BufferedPacket,
                            __ZTS18H265VideoRTPSource, __ZTS18InterleavingFrames,
                            __ZTS18JPEGBufferedPacket, __ZTS18JPEGVideoRTPSource,
                            __ZTS18LATMBufferedPacket, __ZTS18MultiFramedRTPSink,
                            __ZTS18QCELPDeinterleaver, __ZTS18RTSPRegisterSender,
                            __ZTS18ServerMediaSession, __ZTS18TheoraVideoRTPSink,
                            __ZTS18VorbisAudioRTPSink,
                            __ZTS19BasicTaskScheduler0,
                            __ZTS19CAmbisonicProcessor,
                            __ZTS19DVVideoStreamFramer,
                            __ZTS19H264or5VideoRTPSink,
                            __ZTS19MP3ADUdeinterleaver,
                            __ZTS19MPEG4ESVideoRTPSink,
                            __ZTS19MPEG4GenericRTPSink,
                            __ZTS19QCELPBufferedPacket,
                            __ZTS19RTPReceptionStatsDB,
                            __ZTS20DeinterleavingFrames,
                            __ZTS20DirectedNetInterface,
                            __ZTS20H263plusVideoRTPSink,
                            __ZTS20MPEG1or2AudioRTPSink,
                            __ZTS20MPEG1or2VideoRTPSink,
                            __ZTS20MultiFramedRTPSource,
                            __ZTS20RTPTransmissionStats,
                            __ZTS20RTSPDeregisterSender,
                            __ZTS20SpeakersBinauralizer,
                            __ZTS20TheoraBufferedPacket,
                            __ZTS20TheoraVideoRTPSource,
                            __ZTS20VorbisAudioRTPSource,
                            __ZTS20VorbisBufferedPacket,
                            __ZTS21BasicUsageEnvironment,
                            __ZTS21BufferedPacketFactory,
                            __ZTS21MP3ADUinterleaverBase,
                            __ZTS21MPEG4ESVideoRTPSource,
                            __ZTS21MPEG4GenericRTPSource,
                            __ZTS21MPEG4LATMAudioRTPSink,
                            __ZTS21MPEGVideoStreamFramer,
                            __ZTS21MPEGVideoStreamParser,
                            __ZTS21ServerMediaSubsession,
                            __ZTS22AddressPortLookupTable,
                            __ZTS22BasicUsageEnvironment0,
                            __ZTS22CAmbisonicBinauralizer,
                            __ZTS22H263plusVideoRTPSource,
                            __ZTS22MPEG1or2AudioRTPSource,
                            __ZTS22MPEG1or2VideoRTPSource,
                            __ZTS22MPEG4VideoStreamFramer,
                            __ZTS22MPEG4VideoStreamParser,
                            __ZTS22RTPTransmissionStatsDB,
                            __ZTS22ReorderingPacketBuffer,
                            __ZTS23AMRDeinterleavingBuffer,
                            __ZTS23DirectedNetInterfaceSet,
                            __ZTS23MPEG4LATMAudioRTPSource,
                            __ZTS23MediaSubsessionIterator,
                            __ZTS23ProxyServerMediaSession,
                            __ZTS23QTGenericBufferedPacket,
                            __ZTS24ADUBufferedPacketFactory,
                            __ZTS24AMRBufferedPacketFactory,
                            __ZTS24H264or5VideoStreamFramer,
                            __ZTS24H264or5VideoStreamParser,
                            __ZTS25H264BufferedPacketFactory,
                            __ZTS25H265BufferedPacketFactory,
                            __ZTS25JPEGBufferedPacketFactory,
                            __ZTS25LATMBufferedPacketFactory,
                            __ZTS25MPEG1or2VideoStreamFramer,
                            __ZTS25MPEG1or2VideoStreamParser,
                            __ZTS25QCELPDeinterleavingBuffer,
                            __ZTS25QuickTimeGenericRTPSource,
                            __ZTS26MPEG2TransportStreamFramer,
                            __ZTS26MPEG4GenericBufferedPacket,
                            __ZTS26ProxyServerMediaSubsession,
                            __ZTS26QCELPBufferedPacketFactory,
                            __ZTS26UserAuthenticationDatabase,
                            __ZTS27TheoraBufferedPacketFactory,
                            __ZTS27VorbisBufferedPacketFactory,
                            __ZTS29H264VideoStreamDiscreteFramer,
                            __ZTS29H265VideoStreamDiscreteFramer,
                            __ZTS29OnDemandServerMediaSubsession,
                            __ZTS29ServerMediaSubsessionIterator,
                            __ZTS30MPEG4VideoStreamDiscreteFramer,
                            __ZTS30QTGenericBufferedPacketFactory,
                            __ZTS30RTSPRegisterOrDeregisterSender,
                            __ZTS30RTSPServerWithREGISTERProxying,
                            __ZTS31HandlerServerForREGISTERCommand,
                            __ZTS32H264or5VideoStreamDiscreteFramer,
                            __ZTS33MPEG1or2VideoStreamDiscreteFramer,
                            __ZTS33MPEG4GenericBufferedPacketFactory,
                            __ZTS33PresentationTimeSessionNormalizer,
                            __ZTS36PresentationTimeSubsessionNormalizer,
                            __ZTS6Locale, __ZTS6Medium, __ZTS6Socket, __ZTS7RTPSink,
                            __ZTS7_Tables, __ZTS8CBFormat, __ZTS8TimeCode,
                            __ZTS9Groupsock, __ZTS9HashTable, __ZTS9MediaSink,
                            __ZTS9RTPSource, __ZTS9SOFA_HRTF,
                            __ZTSN10RTSPClient12RequestQueueE,
                            __ZTSN10RTSPClient13RequestRecordE,
                            __ZTSN10RTSPServer17RTSPClientSessionE,
                            __ZTSN10RTSPServer20RTSPClientConnection17ParamsForREGISTERE,
                            __ZTSN10RTSPServer20RTSPClientConnectionE,
                            __ZTSN11libmatroska10DataBufferE,
                            __ZTSN11libmatroska11KaxCuePointE,
                            __ZTSN11libmatroska12KaxTimeSliceE,
                            __ZTSN11libmatroska13KaxSliceDelayE,
                            __ZTSN11libmatroska13KaxVideoGammaE,
                            __ZTSN11libmatroska14KaxTrackOffsetE,
                            __ZTSN11libmatroska15KaxBlockVirtualE,
                            __ZTSN11libmatroska15KaxCodecInfoURLE,
                            __ZTSN11libmatroska15KaxCueRefNumberE,
                            __ZTSN11libmatroska15KaxFileReferralE,
                            __ZTSN11libmatroska16KaxAudioPositionE,
                            __ZTSN11libmatroska16KaxCodecSettingsE,
                            __ZTSN11libmatroska16KaxCueRefClusterE,
                            __ZTSN11libmatroska16KaxInternalBlockE,
                            __ZTSN11libmatroska16KaxOldStereoModeE,
                            __ZTSN11libmatroska16KaxSliceDurationE,
                            __ZTSN11libmatroska17KaxEncryptedBlockE,
                            __ZTSN11libmatroska17KaxReferenceBlockE,
                            __ZTSN11libmatroska17KaxVideoFrameRateE,
                            __ZTSN11libmatroska18KaxFileUsedEndTimeE,
                            __ZTSN11libmatroska18KaxSliceBlockAddIDE,
                            __ZTSN11libmatroska18KaxSliceLaceNumberE,
                            __ZTSN11libmatroska19KaxCodecDownloadURLE,
                            __ZTSN11libmatroska19KaxCueRefCodecStateE,
                            __ZTSN11libmatroska19KaxReferenceVirtualE,
                            __ZTSN11libmatroska19KaxSliceFrameNumberE,
                            __ZTSN11libmatroska20KaxFileUsedStartTimeE,
                            __ZTSN11libmatroska22KaxTrackAttachmentLinkE,
                            __ZTSN11libmatroska7KaxCuesE,
                            __ZTSN14BasicHashTable8IteratorE,
                            __ZTSN18GenericMediaServer13ClientSessionE,
                            __ZTSN18GenericMediaServer16ClientConnectionE,
                            __ZTSN18GenericMediaServer26ServerMediaSessionIteratorE,
                            __ZTSN18RTSPRegisterSender22RequestRecord_REGISTERE,
                            __ZTSN19RTPReceptionStatsDB8IteratorE,
                            __ZTSN20RTSPDeregisterSender24RequestRecord_DEREGISTERE,
                            __ZTSN22AddressPortLookupTable8IteratorE,
                            __ZTSN22RTPTransmissionStatsDB8IteratorE,
                            __ZTSN23AMRDeinterleavingBuffer15FrameDescriptorE,
                            __ZTSN23DirectedNetInterfaceSet8IteratorE,
                            __ZTSN25QCELPDeinterleavingBuffer15FrameDescriptorE,
                            __ZTSN30RTSPRegisterOrDeregisterSender36RequestRecord_REGISTER_or_DEREGISTERE,
                            __ZTSN6TagLib10ByteVectorE,
                            __ZTSN6TagLib10FileStreamE,
                            __ZTSN6TagLib10RefCounterE,
                            __ZTSN6TagLib10StringListE,
                            __ZTSN6TagLib11PropertyMapE,
                            __ZTSN6TagLib14ByteVectorListE,
                            __ZTSN6TagLib15AudioPropertiesE,
                            __ZTSN6TagLib2IT10PropertiesE,
                            __ZTSN6TagLib2IT4FileE,
                            __ZTSN6TagLib2XM10PropertiesE,
                            __ZTSN6TagLib2XM4FileE,
                            __ZTSN6TagLib3APE10PropertiesE,
                            __ZTSN6TagLib3APE3TagE, __ZTSN6TagLib3APE4FileE,
                            __ZTSN6TagLib3APE4ItemE, __ZTSN6TagLib3APE6FooterE,
                            __ZTSN6TagLib3ASF10PropertiesE,
                            __ZTSN6TagLib3ASF3TagE,
                            __ZTSN6TagLib3ASF4File11FilePrivate10BaseObjectE,
                            __ZTSN6TagLib3ASF4File11FilePrivate13UnknownObjectE,
                            __ZTSN6TagLib3ASF4File11FilePrivate14MetadataObjectE,
                            __ZTSN6TagLib3ASF4File11FilePrivate15CodecListObjectE,
                            __ZTSN6TagLib3ASF4File11FilePrivate20FilePropertiesObjectE,
                            __ZTSN6TagLib3ASF4File11FilePrivate21HeaderExtensionObjectE,
                            __ZTSN6TagLib3ASF4File11FilePrivate21MetadataLibraryObjectE,
                            __ZTSN6TagLib3ASF4File11FilePrivate22StreamPropertiesObjectE,
                            __ZTSN6TagLib3ASF4File11FilePrivate24ContentDescriptionObjectE,
                            __ZTSN6TagLib3ASF4File11FilePrivate32ExtendedContentDescriptionObjectE,
                            __ZTSN6TagLib3ASF4FileE, __ZTSN6TagLib3ASF7PictureE,
                            __ZTSN6TagLib3ASF9AttributeE,
                            __ZTSN6TagLib3MP410PropertiesE,
                            __ZTSN6TagLib3MP43TagE, __ZTSN6TagLib3MP44FileE,
                            __ZTSN6TagLib3MPC10PropertiesE,
                            __ZTSN6TagLib3MPC4FileE,
                            __ZTSN6TagLib3Mod10PropertiesE,
                            __ZTSN6TagLib3Mod3TagE, __ZTSN6TagLib3Mod4FileE,
                            __ZTSN6TagLib3Ogg10PageHeaderE,
                            __ZTSN6TagLib3Ogg11XiphCommentE,
                            __ZTSN6TagLib3Ogg4FLAC4FileE,
                            __ZTSN6TagLib3Ogg4FileE,
                            __ZTSN6TagLib3Ogg4Opus10PropertiesE,
                            __ZTSN6TagLib3Ogg4Opus4FileE,
                            __ZTSN6TagLib3Ogg4PageE,
                            __ZTSN6TagLib3Ogg5Speex10PropertiesE,
                            __ZTSN6TagLib3Ogg5Speex4FileE,
                            __ZTSN6TagLib3S3M10PropertiesE,
                            __ZTSN6TagLib3S3M4FileE, __ZTSN6TagLib3TagE,
                            __ZTSN6TagLib4FLAC10PropertiesE,
                            __ZTSN6TagLib4FLAC13MetadataBlockE,
                            __ZTSN6TagLib4FLAC20UnknownMetadataBlockE,
                            __ZTSN6TagLib4FLAC4FileE,
                            __ZTSN6TagLib4FLAC7PictureE, __ZTSN6TagLib4FileE,
                            __ZTSN6TagLib4MPEG10PropertiesE,
                            __ZTSN6TagLib4MPEG10XingHeaderE,
                            __ZTSN6TagLib4MPEG4FileE, __ZTSN6TagLib4MPEG6HeaderE,
                            __ZTSN6TagLib4RIFF3WAV10PropertiesE,
                            __ZTSN6TagLib4RIFF3WAV4FileE,
                            __ZTSN6TagLib4RIFF4AIFF10PropertiesE,
                            __ZTSN6TagLib4RIFF4AIFF4FileE,
                            __ZTSN6TagLib4RIFF4FileE,
                            __ZTSN6TagLib4RIFF4Info13StringHandlerE,
                            __ZTSN6TagLib4RIFF4Info3TagE,
                            __ZTSN6TagLib5ID3v113StringHandlerE,
                            __ZTSN6TagLib5ID3v13TagE,
                            __ZTSN6TagLib5ID3v212ChapterFrameE,
                            __ZTSN6TagLib5ID3v212FrameFactoryE,
                            __ZTSN6TagLib5ID3v212PodcastFrameE,
                            __ZTSN6TagLib5ID3v212PrivateFrameE,
                            __ZTSN6TagLib5ID3v212UnknownFrameE,
                            __ZTSN6TagLib5ID3v212UrlLinkFrameE,
                            __ZTSN6TagLib5ID3v213CommentsFrameE,
                            __ZTSN6TagLib5ID3v214ExtendedHeaderE,
                            __ZTSN6TagLib5ID3v214OwnershipFrameE,
                            __ZTSN6TagLib5ID3v216UserUrlLinkFrameE,
                            __ZTSN6TagLib5ID3v218PopularimeterFrameE,
                            __ZTSN6TagLib5ID3v219Latin1StringHandlerE,
                            __ZTSN6TagLib5ID3v219RelativeVolumeFrameE,
                            __ZTSN6TagLib5ID3v220AttachedPictureFrameE,
                            __ZTSN6TagLib5ID3v220TableOfContentsFrameE,
                            __ZTSN6TagLib5ID3v221EventTimingCodesFrameE,
                            __ZTSN6TagLib5ID3v223AttachedPictureFrameV22E,
                            __ZTSN6TagLib5ID3v223SynchronizedLyricsFrameE,
                            __ZTSN6TagLib5ID3v223TextIdentificationFrameE,
                            __ZTSN6TagLib5ID3v225UniqueFileIdentifierFrameE,
                            __ZTSN6TagLib5ID3v225UnsynchronizedLyricsFrameE,
                            __ZTSN6TagLib5ID3v227UserTextIdentificationFrameE,
                            __ZTSN6TagLib5ID3v230GeneralEncapsulatedObjectFrameE,
                            __ZTSN6TagLib5ID3v23TagE,
                            __ZTSN6TagLib5ID3v25Frame6HeaderE,
                            __ZTSN6TagLib5ID3v25FrameE,
                            __ZTSN6TagLib5ID3v26FooterE,
                            __ZTSN6TagLib5ID3v26HeaderE, __ZTSN6TagLib6StringE,
                            __ZTSN6TagLib6Vorbis10PropertiesE,
                            __ZTSN6TagLib6Vorbis4FileE, __ZTSN6TagLib7FileRefE,
                            __ZTSN6TagLib7WavPack10PropertiesE,
                            __ZTSN6TagLib7WavPack4FileE, __ZTSN6TagLib8IOStreamE,
                            __ZTSN6TagLib8TagUnionE,
